(dp1
S'meta'
p2
(dp3
S'timestamp'
p4
F1484325497.436203
sS'dependency_folders'
p5
(dp6
sS'dependency_files'
p7
(dp8
S'/home/tberger/Excalibur/CMSSW_8_0_24/src/Excalibur/data/json/Cert_271036-284044_13TeV_PromptReco_Collisions16_JSON.txt'
p9
(I20338
F1484325497.434649
tp10
sS'/portal/ekpbms2/home/tberger/Excalibur/CMSSW_8_0_24/src/Excalibur/data/json/Cert_271036-284044_13TeV_PromptReco_Collisions16_JSON.txt'
p11
(I20338
F1484325497.434649
tp12
sssS'response'
p13
S'/portal/ekpbms2/home/tberger/Excalibur/CMSSW_8_0_24/src/Excalibur/data/json/Cert_271036-284044_13TeV_PromptReco_Collisions16_JSON.txt'
p14
s.