(dp1
S'meta'
p2
(dp3
S'timestamp'
p4
F1455568595.8451641
sS'dependency_folders'
p5
(dp6
sS'dependency_files'
p7
(dp8
S'/portal/ekpcms6/home/cheidecker/Excalibur/data/json/Cert_246908-260627_13TeV_PromptReco_Collisions15_25ns_JSON_v2.txt'
p9
(I6469
F1455568595.843884
tp10
sS'/afs/cern.ch/cms/CAF/CMSCOMM/COMM_DQM/certification/Collisions15/13TeV/Cert_246908-260627_13TeV_PromptReco_Collisions15_25ns_JSON_v2.txt'
p11
(I3611
F1450440090
tp12
sssS'response'
p13
S'/portal/ekpcms6/home/cheidecker/Excalibur/data/json/Cert_246908-260627_13TeV_PromptReco_Collisions15_25ns_JSON_v2.txt'
p14
s.