(dp1
S'meta'
p2
(dp3
S'timestamp'
p4
F1464701370.1229889
sS'dependency_folders'
p5
(dp6
sS'dependency_files'
p7
(dp8
S'/afs/cern.ch/cms/CAF/CMSCOMM/COMM_DQM/certification/Collisions16/13TeV/Cert_271036-273730_13TeV_PromptReco_Collisions16_JSON.txt'
p9
(I729
F1464355259
tp10
sS'/portal/ekpcms6/home/cheidecker/Excalibur/data/json/Cert_271036-273730_13TeV_PromptReco_Collisions16_JSON.txt'
p11
(I1268
F1464701370.1220465
tp12
sssS'response'
p13
S'/portal/ekpcms6/home/cheidecker/Excalibur/data/json/Cert_271036-273730_13TeV_PromptReco_Collisions16_JSON.txt'
p14
s.