(dp1
S'meta'
p2
(dp3
S'timestamp'
p4
F1464099474.0570929
sS'dependency_folders'
p5
(dp6
sS'dependency_files'
p7
(dp8
S'/afs/cern.ch/cms/CAF/CMSCOMM/COMM_DQM/certification/Collisions16/13TeV/DCSOnly/json_DCSONLY.txt'
p9
(I8342
F1464098515
tp10
sS'/portal/ekpcms6/home/cheidecker/Excalibur/data/json/json_DCSONLY.txt'
p11
(I5757
F1464099474.0555732
tp12
sssS'response'
p13
S'/portal/ekpcms6/home/cheidecker/Excalibur/data/json/json_DCSONLY.txt'
p14
s.