(dp1
S'meta'
p2
(dp3
S'timestamp'
p4
F1448465163.6211669
sS'dependency_folders'
p5
(dp6
sS'dependency_files'
p7
(dp8
S'/afs/cern.ch/cms/CAF/CMSCOMM/COMM_DQM/certification/Collisions15/13TeV/Cert_246908-260627_13TeV_PromptReco_Collisions15_25ns_JSON.txt'
p9
(I3658
F1447421404
tp10
sssS'response'
p11
F2.1105880000000004
s.