(dp1
S'meta'
p2
(dp3
S'timestamp'
p4
F1447405137.3934629
sS'dependency_folders'
p5
(dp6
sS'dependency_files'
p7
(dp8
S'/afs/cern.ch/cms/CAF/CMSCOMM/COMM_DQM/certification/Collisions15/13TeV/Cert_246908-258750_13TeV_PromptReco_Collisions15_25ns_JSON.txt'
p9
(I2278
F1445289618
tp10
sssS'response'
p11
F1.2802309999999999
s.