(dp1
S'meta'
p2
(dp3
S'timestamp'
p4
F1456243017.3739159
sS'dependency_folders'
p5
(dp6
sS'dependency_files'
p7
(dp8
S'data/json/Cert_246908-260627_13TeV_PromptReco_Collisions15_25ns_JSON_v2.txt'
p9
(I6469
F1455568595.843884
tp10
sssS'response'
p11
F2.169127
s.