(dp1
S'meta'
p2
(dp3
S'timestamp'
p4
F1455571758.549253
sS'dependency_folders'
p5
(dp6
sS'dependency_files'
p7
(dp8
S'data/json/runjson_Cert_246908-260627_13TeV_PromptReco_Collisions15_25ns_JSON_v2_runs256629-inf.json'
p9
(I6037
F1455568465.6658654
tp10
sssS'response'
p11
F2.1527820000000002
s.