(dp1
S'meta'
p2
(dp3
S'timestamp'
p4
F1464099494.4842629
sS'dependency_folders'
p5
(dp6
sS'dependency_files'
p7
(dp8
S'data/json/json_DCSONLY.txt'
p9
(I5757
F1464099474.0555732
tp10
sssS'response'
p11
F0
s.