(dp1
S'meta'
p2
(dp3
S'timestamp'
p4
F1444902128.8720479
sS'dependency_folders'
p5
(dp6
sS'dependency_files'
p7
(dp8
S'data/json/Cert_246908-257599_13TeV_PromptReco_Collisions15_25ns_JSON.txt'
p9
(I1164
F1444160525.834914
tp10
sS'/afs/cern.ch/user/c/cmsbril/public/normtag_json/OfflineNormtagV1.json'
p11
(I18933
F1444829435
tp12
sssS'response'
p13
F0.22557400000000002
s.