(dp1
S'meta'
p2
(dp3
S'timestamp'
p4
F1464358083.08285
sS'dependency_folders'
p5
(dp6
sS'dependency_files'
p7
(dp8
S'/storage/a/wayand/cmss80x/Zll_DYJetsToLL_M-50_amcatnloFXFX-pythia8_25ns_v7_job_1351_skim80.root'
p9
(I348708076
F1461728259
tp10
sS'/storage/a/wayand/cmss80x/Zll_DYJetsToLL_M-50_amcatnloFXFX-pythia8_25ns_v7_job_760_skim80.root'
p11
(I346646295
F1461709923
tp12
sS'/storage/a/wayand/cmss80x/Zll_DYJetsToLL_M-50_amcatnloFXFX-pythia8_25ns_v7_job_1288_skim80.root'
p13
(I403673694
F1461729943
tp14
sS'/storage/a/wayand/cmss80x/Zll_DYJetsToLL_M-50_amcatnloFXFX-pythia8_25ns_v7_job_124_skim80.root'
p15
(I339853817
F1461685393
tp16
sS'/storage/a/wayand/cmss80x/Zll_DYJetsToLL_M-50_amcatnloFXFX-pythia8_25ns_v7_job_1414_skim80.root'
p17
(I350257022
F1461730663
tp18
sS'/storage/a/wayand/cmss80x/Zll_DYJetsToLL_M-50_amcatnloFXFX-pythia8_25ns_v7_job_793_skim80.root'
p19
(I661370228
F1461718312
tp20
sS'/storage/a/wayand/cmss80x/Zll_DYJetsToLL_M-50_amcatnloFXFX-pythia8_25ns_v7_job_1192_skim80.root'
p21
(I574252422
F1461731545
tp22
sS'/storage/a/wayand/cmss80x/Zll_DYJetsToLL_M-50_amcatnloFXFX-pythia8_25ns_v7_job_220_skim80.root'
p23
(I661312263
F1461703419
tp24
sS'/storage/a/wayand/cmss80x/Zll_DYJetsToLL_M-50_amcatnloFXFX-pythia8_25ns_v7_job_1102_skim80.root'
p25
(I666252003
F1461733097
tp26
sS'/storage/a/wayand/cmss80x/Zll_DYJetsToLL_M-50_amcatnloFXFX-pythia8_25ns_v7_job_1297_skim80.root'
p27
(I533165248
F1461730855
tp28
sS'/storage/a/wayand/cmss80x/Zll_DYJetsToLL_M-50_amcatnloFXFX-pythia8_25ns_v7_job_1203_skim80.root'
p29
(I356333743
F1461724975
tp30
sS'/storage/a/wayand/cmss80x/Zll_DYJetsToLL_M-50_amcatnloFXFX-pythia8_25ns_v7_job_636_skim80.root'
p31
(I662198725
F1461717339
tp32
sS'/storage/a/wayand/cmss80x/Zll_DYJetsToLL_M-50_amcatnloFXFX-pythia8_25ns_v7_job_1171_skim80.root'
p33
(I434493790
F1461728370
tp34
sS'/storage/a/wayand/cmss80x/Zll_DYJetsToLL_M-50_amcatnloFXFX-pythia8_25ns_v7_job_1106_skim80.root'
p35
(I650483342
F1461732294
tp36
sS'/storage/a/wayand/cmss80x/Zll_DYJetsToLL_M-50_amcatnloFXFX-pythia8_25ns_v7_job_141_skim80.root'
p37
(I546981970
F1461694315
tp38
sS'/storage/a/wayand/cmss80x/Zll_DYJetsToLL_M-50_amcatnloFXFX-pythia8_25ns_v7_job_990_skim80.root'
p39
(I670145371
F1461732648
tp40
sS'/storage/a/wayand/cmss80x/Zll_DYJetsToLL_M-50_amcatnloFXFX-pythia8_25ns_v7_job_710_skim80.root'
p41
(I668992874
F1461720024
tp42
sS'/storage/a/wayand/cmss80x/Zll_DYJetsToLL_M-50_amcatnloFXFX-pythia8_25ns_v7_job_1510_skim80.root'
p43
(I586708986
F1461737954
tp44
sS'/storage/a/wayand/cmss80x/Zll_DYJetsToLL_M-50_amcatnloFXFX-pythia8_25ns_v7_job_1379_skim80.root'
p45
(I472947322
F1461730982
tp46
sS'/storage/a/wayand/cmss80x/Zll_DYJetsToLL_M-50_amcatnloFXFX-pythia8_25ns_v7_job_500_skim80.root'
p47
(I664491918
F1461697216
tp48
sS'/storage/a/wayand/cmss80x/Zll_DYJetsToLL_M-50_amcatnloFXFX-pythia8_25ns_v7_job_292_skim80.root'
p49
(I604891941
F1461695449
tp50
sS'/storage/a/wayand/cmss80x/Zll_DYJetsToLL_M-50_amcatnloFXFX-pythia8_25ns_v7_job_920_skim80.root'
p51
(I669289951
F1461723496
tp52
sS'/storage/a/wayand/cmss80x/Zll_DYJetsToLL_M-50_amcatnloFXFX-pythia8_25ns_v7_job_347_skim80.root'
p53
(I657380370
F1461697831
tp54
sS'/storage/a/wayand/cmss80x/Zll_DYJetsToLL_M-50_amcatnloFXFX-pythia8_25ns_v7_job_973_skim80.root'
p55
(I353896856
F1461719823
tp56
sS'/storage/a/wayand/cmss80x/Zll_DYJetsToLL_M-50_amcatnloFXFX-pythia8_25ns_v7_job_895_skim80.root'
p57
(I650982591
F1461724825
tp58
sS'/storage/a/wayand/cmss80x/Zll_DYJetsToLL_M-50_amcatnloFXFX-pythia8_25ns_v7_job_586_skim80.root'
p59
(I655108865
F1461695805
tp60
sS'/storage/a/wayand/cmss80x/Zll_DYJetsToLL_M-50_amcatnloFXFX-pythia8_25ns_v7_job_1393_skim80.root'
p61
(I357738535
F1461729500
tp62
sS'/storage/a/wayand/cmss80x/Zll_DYJetsToLL_M-50_amcatnloFXFX-pythia8_25ns_v7_job_989_skim80.root'
p63
(I657631885
F1461729973
tp64
sS'/storage/a/wayand/cmss80x/Zll_DYJetsToLL_M-50_amcatnloFXFX-pythia8_25ns_v7_job_458_skim80.root'
p65
(I657663904
F1461696846
tp66
sS'/storage/a/wayand/cmss80x/Zll_DYJetsToLL_M-50_amcatnloFXFX-pythia8_25ns_v7_job_1310_skim80.root'
p67
(I626642537
F1461736344
tp68
sS'/storage/a/wayand/cmss80x/Zll_DYJetsToLL_M-50_amcatnloFXFX-pythia8_25ns_v7_job_339_skim80.root'
p69
(I651472653
F1461697487
tp70
sS'/storage/a/wayand/cmss80x/Zll_DYJetsToLL_M-50_amcatnloFXFX-pythia8_25ns_v7_job_491_skim80.root'
p71
(I333084755
F1461688007
tp72
sS'/storage/a/wayand/cmss80x/Zll_DYJetsToLL_M-50_amcatnloFXFX-pythia8_25ns_v7_job_395_skim80.root'
p73
(I650066363
F1461695762
tp74
sS'/storage/a/wayand/cmss80x/Zll_DYJetsToLL_M-50_amcatnloFXFX-pythia8_25ns_v7_job_767_skim80.root'
p75
(I358040399
F1461710104
tp76
sS'/storage/a/wayand/cmss80x/Zll_DYJetsToLL_M-50_amcatnloFXFX-pythia8_25ns_v7_job_1638_skim80.root'
p77
(I376431920
F1461734683
tp78
sS'/storage/a/wayand/cmss80x/Zll_DYJetsToLL_M-50_amcatnloFXFX-pythia8_25ns_v7_job_1543_skim80.root'
p79
(I381094993
F1461732549
tp80
sS'/storage/a/wayand/cmss80x/Zll_DYJetsToLL_M-50_amcatnloFXFX-pythia8_25ns_v7_job_731_skim80.root'
p81
(I673677426
F1461720483
tp82
sS'/storage/a/wayand/cmss80x/Zll_DYJetsToLL_M-50_amcatnloFXFX-pythia8_25ns_v7_job_975_skim80.root'
p83
(I667965554
F1461732659
tp84
sS'/storage/a/wayand/cmss80x/Zll_DYJetsToLL_M-50_amcatnloFXFX-pythia8_25ns_v7_job_751_skim80.root'
p85
(I631403915
F1461718414
tp86
sS'/storage/a/wayand/cmss80x/Zll_DYJetsToLL_M-50_amcatnloFXFX-pythia8_25ns_v7_job_866_skim80.root'
p87
(I311467849
F1461720389
tp88
sS'/storage/a/wayand/cmss80x/Zll_DYJetsToLL_M-50_amcatnloFXFX-pythia8_25ns_v7_job_1014_skim80.root'
p89
(I674352326
F1461729325
tp90
sS'/storage/a/wayand/cmss80x/Zll_DYJetsToLL_M-50_amcatnloFXFX-pythia8_25ns_v7_job_365_skim80.root'
p91
(I623315215
F1461694798
tp92
sS'/storage/a/wayand/cmss80x/Zll_DYJetsToLL_M-50_amcatnloFXFX-pythia8_25ns_v7_job_1588_skim80.root'
p93
(I426876621
F1461735164
tp94
sS'/storage/a/wayand/cmss80x/Zll_DYJetsToLL_M-50_amcatnloFXFX-pythia8_25ns_v7_job_746_skim80.root'
p95
(I391784299
F1461718186
tp96
sS'/storage/a/wayand/cmss80x/Zll_DYJetsToLL_M-50_amcatnloFXFX-pythia8_25ns_v7_job_272_skim80.root'
p97
(I650843129
F1461697497
tp98
sS'/storage/a/wayand/cmss80x/Zll_DYJetsToLL_M-50_amcatnloFXFX-pythia8_25ns_v7_job_387_skim80.root'
p99
(I650799001
F1461692524
tp100
sS'/storage/a/wayand/cmss80x/Zll_DYJetsToLL_M-50_amcatnloFXFX-pythia8_25ns_v7_job_850_skim80.root'
p101
(I655212756
F1461722062
tp102
sS'/storage/a/wayand/cmss80x/Zll_DYJetsToLL_M-50_amcatnloFXFX-pythia8_25ns_v7_job_1567_skim80.root'
p103
(I354603206
F1461732403
tp104
sS'/storage/a/wayand/cmss80x/Zll_DYJetsToLL_M-50_amcatnloFXFX-pythia8_25ns_v7_job_1381_skim80.root'
p105
(I399858642
F1461728982
tp106
sS'/storage/a/wayand/cmss80x/Zll_DYJetsToLL_M-50_amcatnloFXFX-pythia8_25ns_v7_job_645_skim80.root'
p107
(I677425989
F1461712729
tp108
sS'/storage/a/wayand/cmss80x/Zll_DYJetsToLL_M-50_amcatnloFXFX-pythia8_25ns_v7_job_474_skim80.root'
p109
(I664624225
F1461698400
tp110
sS'/storage/a/wayand/cmss80x/Zll_DYJetsToLL_M-50_amcatnloFXFX-pythia8_25ns_v7_job_1607_skim80.root'
p111
(I353850404
F1461733506
tp112
sS'/storage/a/wayand/cmss80x/Zll_DYJetsToLL_M-50_amcatnloFXFX-pythia8_25ns_v7_job_1345_skim80.root'
p113
(I360065058
F1461729039
tp114
sS'/storage/a/wayand/cmss80x/Zll_DYJetsToLL_M-50_amcatnloFXFX-pythia8_25ns_v7_job_638_skim80.root'
p115
(I649407163
F1461714199
tp116
sS'/storage/a/wayand/cmss80x/Zll_DYJetsToLL_M-50_amcatnloFXFX-pythia8_25ns_v7_job_93_skim80.root'
p117
(I654266060
F1461703641
tp118
sS'/storage/a/wayand/cmss80x/Zll_DYJetsToLL_M-50_amcatnloFXFX-pythia8_25ns_v7_job_782_skim80.root'
p119
(I654342929
F1461719176
tp120
sS'/storage/a/wayand/cmss80x/Zll_DYJetsToLL_M-50_amcatnloFXFX-pythia8_25ns_v7_job_781_skim80.root'
p121
(I654898360
F1461720098
tp122
sS'/storage/a/wayand/cmss80x/Zll_DYJetsToLL_M-50_amcatnloFXFX-pythia8_25ns_v7_job_1478_skim80.root'
p123
(I550026615
F1461738660
tp124
sS'/storage/a/wayand/cmss80x/Zll_DYJetsToLL_M-50_amcatnloFXFX-pythia8_25ns_v7_job_763_skim80.root'
p125
(I356075428
F1461710173
tp126
sS'/storage/a/wayand/cmss80x/Zll_DYJetsToLL_M-50_amcatnloFXFX-pythia8_25ns_v7_job_348_skim80.root'
p127
(I661561384
F1461697319
tp128
sS'/storage/a/wayand/cmss80x/Zll_DYJetsToLL_M-50_amcatnloFXFX-pythia8_25ns_v7_job_1376_skim80.root'
p129
(I341422402
F1461728149
tp130
sS'/storage/a/wayand/cmss80x/Zll_DYJetsToLL_M-50_amcatnloFXFX-pythia8_25ns_v7_job_470_skim80.root'
p131
(I534815736
F1461693694
tp132
sS'/storage/a/wayand/cmss80x/Zll_DYJetsToLL_M-50_amcatnloFXFX-pythia8_25ns_v7_job_646_skim80.root'
p133
(I660381586
F1461715953
tp134
sS'/storage/a/wayand/cmss80x/Zll_DYJetsToLL_M-50_amcatnloFXFX-pythia8_25ns_v7_job_814_skim80.root'
p135
(I667179727
F1461721651
tp136
sS'/storage/a/wayand/cmss80x/Zll_DYJetsToLL_M-50_amcatnloFXFX-pythia8_25ns_v7_job_1440_skim80.root'
p137
(I573939800
F1461736414
tp138
sS'/storage/a/wayand/cmss80x/Zll_DYJetsToLL_M-50_amcatnloFXFX-pythia8_25ns_v7_job_931_skim80.root'
p139
(I661386493
F1461730045
tp140
sS'/storage/a/wayand/cmss80x/Zll_DYJetsToLL_M-50_amcatnloFXFX-pythia8_25ns_v7_job_1298_skim80.root'
p141
(I490761976
F1461733250
tp142
sS'/storage/a/wayand/cmss80x/Zll_DYJetsToLL_M-50_amcatnloFXFX-pythia8_25ns_v7_job_1154_skim80.root'
p143
(I650840166
F1461730837
tp144
sS'/storage/a/wayand/cmss80x/Zll_DYJetsToLL_M-50_amcatnloFXFX-pythia8_25ns_v7_job_995_skim80.root'
p145
(I653309815
F1461730970
tp146
sS'/storage/a/wayand/cmss80x/Zll_DYJetsToLL_M-50_amcatnloFXFX-pythia8_25ns_v7_job_578_skim80.root'
p147
(I364382095
F1461688768
tp148
sS'/storage/a/wayand/cmss80x/Zll_DYJetsToLL_M-50_amcatnloFXFX-pythia8_25ns_v7_job_498_skim80.root'
p149
(I654987965
F1461698260
tp150
sS'/storage/a/wayand/cmss80x/Zll_DYJetsToLL_M-50_amcatnloFXFX-pythia8_25ns_v7_job_101_skim80.root'
p151
(I672304929
F1461702638
tp152
sS'/storage/a/wayand/cmss80x/Zll_DYJetsToLL_M-50_amcatnloFXFX-pythia8_25ns_v7_job_752_skim80.root'
p153
(I491107807
F1461713845
tp154
sS'/storage/a/wayand/cmss80x/Zll_DYJetsToLL_M-50_amcatnloFXFX-pythia8_25ns_v7_job_534_skim80.root'
p155
(I661436435
F1461696152
tp156
sS'/storage/a/wayand/cmss80x/Zll_DYJetsToLL_M-50_amcatnloFXFX-pythia8_25ns_v7_job_238_skim80.root'
p157
(I659923708
F1461711124
tp158
sS'/storage/a/wayand/cmss80x/Zll_DYJetsToLL_M-50_amcatnloFXFX-pythia8_25ns_v7_job_666_skim80.root'
p159
(I653850695
F1461718585
tp160
sS'/storage/a/wayand/cmss80x/Zll_DYJetsToLL_M-50_amcatnloFXFX-pythia8_25ns_v7_job_393_skim80.root'
p161
(I662825753
F1461695088
tp162
sS'/storage/a/wayand/cmss80x/Zll_DYJetsToLL_M-50_amcatnloFXFX-pythia8_25ns_v7_job_61_skim80.root'
p163
(I656405564
F1461695192
tp164
sS'/storage/a/wayand/cmss80x/Zll_DYJetsToLL_M-50_amcatnloFXFX-pythia8_25ns_v7_job_199_skim80.root'
p165
(I378587139
F1461688962
tp166
sS'/storage/a/wayand/cmss80x/Zll_DYJetsToLL_M-50_amcatnloFXFX-pythia8_25ns_v7_job_576_skim80.root'
p167
(I506636935
F1461692892
tp168
sS'/storage/a/wayand/cmss80x/Zll_DYJetsToLL_M-50_amcatnloFXFX-pythia8_25ns_v7_job_443_skim80.root'
p169
(I419185157
F1461688783
tp170
sS'/storage/a/wayand/cmss80x/Zll_DYJetsToLL_M-50_amcatnloFXFX-pythia8_25ns_v7_job_240_skim80.root'
p171
(I606865575
F1461693845
tp172
sS'/storage/a/wayand/cmss80x/Zll_DYJetsToLL_M-50_amcatnloFXFX-pythia8_25ns_v7_job_275_skim80.root'
p173
(I652930069
F1461696750
tp174
sS'/storage/a/wayand/cmss80x/Zll_DYJetsToLL_M-50_amcatnloFXFX-pythia8_25ns_v7_job_1113_skim80.root'
p175
(I670137045
F1461733007
tp176
sS'/storage/a/wayand/cmss80x/Zll_DYJetsToLL_M-50_amcatnloFXFX-pythia8_25ns_v7_job_712_skim80.root'
p177
(I549879281
F1461715984
tp178
sS'/storage/a/wayand/cmss80x/Zll_DYJetsToLL_M-50_amcatnloFXFX-pythia8_25ns_v7_job_298_skim80.root'
p179
(I514794291
F1461695349
tp180
sS'/storage/a/wayand/cmss80x/Zll_DYJetsToLL_M-50_amcatnloFXFX-pythia8_25ns_v7_job_1411_skim80.root'
p181
(I353048228
F1461729143
tp182
sS'/storage/a/wayand/cmss80x/Zll_DYJetsToLL_M-50_amcatnloFXFX-pythia8_25ns_v7_job_599_skim80.root'
p183
(I489010411
F1461690641
tp184
sS'/storage/a/wayand/cmss80x/Zll_DYJetsToLL_M-50_amcatnloFXFX-pythia8_25ns_v7_job_590_skim80.root'
p185
(I657752250
F1461696351
tp186
sS'/storage/a/wayand/cmss80x/Zll_DYJetsToLL_M-50_amcatnloFXFX-pythia8_25ns_v7_job_175_skim80.root'
p187
(I668590630
F1461699973
tp188
sS'/storage/a/wayand/cmss80x/Zll_DYJetsToLL_M-50_amcatnloFXFX-pythia8_25ns_v7_job_390_skim80.root'
p189
(I647452464
F1461697231
tp190
sS'/storage/a/wayand/cmss80x/Zll_DYJetsToLL_M-50_amcatnloFXFX-pythia8_25ns_v7_job_1652_skim80.root'
p191
(I435918363
F1461736507
tp192
sS'/storage/a/wayand/cmss80x/Zll_DYJetsToLL_M-50_amcatnloFXFX-pythia8_25ns_v7_job_637_skim80.root'
p193
(I659018282
F1461711797
tp194
sS'/storage/a/wayand/cmss80x/Zll_DYJetsToLL_M-50_amcatnloFXFX-pythia8_25ns_v7_job_1477_skim80.root'
p195
(I405747793
F1461734030
tp196
sS'/storage/a/wayand/cmss80x/Zll_DYJetsToLL_M-50_amcatnloFXFX-pythia8_25ns_v7_job_1264_skim80.root'
p197
(I360546284
F1461727320
tp198
sS'/storage/a/wayand/cmss80x/Zll_DYJetsToLL_M-50_amcatnloFXFX-pythia8_25ns_v7_job_1355_skim80.root'
p199
(I648379551
F1461737762
tp200
sS'/storage/a/wayand/cmss80x/Zll_DYJetsToLL_M-50_amcatnloFXFX-pythia8_25ns_v7_job_1343_skim80.root'
p201
(I667429678
F1461735716
tp202
sS'/storage/a/wayand/cmss80x/Zll_DYJetsToLL_M-50_amcatnloFXFX-pythia8_25ns_v7_job_562_skim80.root'
p203
(I672341109
F1461708372
tp204
sS'/storage/a/wayand/cmss80x/Zll_DYJetsToLL_M-50_amcatnloFXFX-pythia8_25ns_v7_job_1301_skim80.root'
p205
(I660796193
F1461738135
tp206
sS'/storage/a/wayand/cmss80x/Zll_DYJetsToLL_M-50_amcatnloFXFX-pythia8_25ns_v7_job_689_skim80.root'
p207
(I657865154
F1461716521
tp208
sS'/storage/a/wayand/cmss80x/Zll_DYJetsToLL_M-50_amcatnloFXFX-pythia8_25ns_v7_job_184_skim80.root'
p209
(I452178749
F1461695687
tp210
sS'/storage/a/wayand/cmss80x/Zll_DYJetsToLL_M-50_amcatnloFXFX-pythia8_25ns_v7_job_1061_skim80.root'
p211
(I356725028
F1461723834
tp212
sS'/storage/a/wayand/cmss80x/Zll_DYJetsToLL_M-50_amcatnloFXFX-pythia8_25ns_v7_job_400_skim80.root'
p213
(I662488004
F1461696836
tp214
sS'/storage/a/wayand/cmss80x/Zll_DYJetsToLL_M-50_amcatnloFXFX-pythia8_25ns_v7_job_649_skim80.root'
p215
(I409720376
F1461710098
tp216
sS'/storage/a/wayand/cmss80x/Zll_DYJetsToLL_M-50_amcatnloFXFX-pythia8_25ns_v7_job_215_skim80.root'
p217
(I657486122
F1461698209
tp218
sS'/storage/a/wayand/cmss80x/Zll_DYJetsToLL_M-50_amcatnloFXFX-pythia8_25ns_v7_job_1058_skim80.root'
p219
(I378622445
F1461723414
tp220
sS'/storage/a/wayand/cmss80x/Zll_DYJetsToLL_M-50_amcatnloFXFX-pythia8_25ns_v7_job_790_skim80.root'
p221
(I658307278
F1461719702
tp222
sS'/storage/a/wayand/cmss80x/Zll_DYJetsToLL_M-50_amcatnloFXFX-pythia8_25ns_v7_job_1340_skim80.root'
p223
(I343124112
F1461728901
tp224
sS'/storage/a/wayand/cmss80x/Zll_DYJetsToLL_M-50_amcatnloFXFX-pythia8_25ns_v7_job_408_skim80.root'
p225
(I400625682
F1461690609
tp226
sS'/storage/a/wayand/cmss80x/Zll_DYJetsToLL_M-50_amcatnloFXFX-pythia8_25ns_v7_job_967_skim80.root'
p227
(I401580479
F1461723244
tp228
sS'/storage/a/wayand/cmss80x/Zll_DYJetsToLL_M-50_amcatnloFXFX-pythia8_25ns_v7_job_923_skim80.root'
p229
(I416642869
F1461724510
tp230
sS'/storage/a/wayand/cmss80x/Zll_DYJetsToLL_M-50_amcatnloFXFX-pythia8_25ns_v7_job_0_skim80.root'
p231
(I651547280
F1461697597
tp232
sS'/storage/a/wayand/cmss80x/Zll_DYJetsToLL_M-50_amcatnloFXFX-pythia8_25ns_v7_job_1520_skim80.root'
p233
(I445748819
F1461735338
tp234
sS'/storage/a/wayand/cmss80x/Zll_DYJetsToLL_M-50_amcatnloFXFX-pythia8_25ns_v7_job_1617_skim80.root'
p235
(I445709633
F1461738148
tp236
sS'/storage/a/wayand/cmss80x/Zll_DYJetsToLL_M-50_amcatnloFXFX-pythia8_25ns_v7_job_1242_skim80.root'
p237
(I383547351
F1461725210
tp238
sS'/storage/a/wayand/cmss80x/Zll_DYJetsToLL_M-50_amcatnloFXFX-pythia8_25ns_v7_job_691_skim80.root'
p239
(I655987232
F1461716313
tp240
sS'/storage/a/wayand/cmss80x/Zll_DYJetsToLL_M-50_amcatnloFXFX-pythia8_25ns_v7_job_256_skim80.root'
p241
(I659109943
F1461697467
tp242
sS'/storage/a/wayand/cmss80x/Zll_DYJetsToLL_M-50_amcatnloFXFX-pythia8_25ns_v7_job_1127_skim80.root'
p243
(I671250125
F1461733375
tp244
sS'/storage/a/wayand/cmss80x/Zll_DYJetsToLL_M-50_amcatnloFXFX-pythia8_25ns_v7_job_1122_skim80.root'
p245
(I669350362
F1461733428
tp246
sS'/storage/a/wayand/cmss80x/Zll_DYJetsToLL_M-50_amcatnloFXFX-pythia8_25ns_v7_job_701_skim80.root'
p247
(I601315027
F1461715690
tp248
sS'/storage/a/wayand/cmss80x/Zll_DYJetsToLL_M-50_amcatnloFXFX-pythia8_25ns_v7_job_1384_skim80.root'
p249
(I53168246
F1461720726
tp250
sS'/storage/a/wayand/cmss80x/Zll_DYJetsToLL_M-50_amcatnloFXFX-pythia8_25ns_v7_job_1181_skim80.root'
p251
(I431047560
F1461730170
tp252
sS'/storage/a/wayand/cmss80x/Zll_DYJetsToLL_M-50_amcatnloFXFX-pythia8_25ns_v7_job_312_skim80.root'
p253
(I361750034
F1461687610
tp254
sS'/storage/a/wayand/cmss80x/Zll_DYJetsToLL_M-50_amcatnloFXFX-pythia8_25ns_v7_job_1024_skim80.root'
p255
(I666651117
F1461732789
tp256
sS'/storage/a/wayand/cmss80x/Zll_DYJetsToLL_M-50_amcatnloFXFX-pythia8_25ns_v7_job_465_skim80.root'
p257
(I671710014
F1461700213
tp258
sS'/storage/a/wayand/cmss80x/Zll_DYJetsToLL_M-50_amcatnloFXFX-pythia8_25ns_v7_job_1044_skim80.root'
p259
(I498245189
F1461728457
tp260
sS'/storage/a/wayand/cmss80x/Zll_DYJetsToLL_M-50_amcatnloFXFX-pythia8_25ns_v7_job_862_skim80.root'
p261
(I389163609
F1461716426
tp262
sS'/storage/a/wayand/cmss80x/Zll_DYJetsToLL_M-50_amcatnloFXFX-pythia8_25ns_v7_job_1145_skim80.root'
p263
(I452393506
F1461736386
tp264
sS'/storage/a/wayand/cmss80x/Zll_DYJetsToLL_M-50_amcatnloFXFX-pythia8_25ns_v7_job_492_skim80.root'
p265
(I652358508
F1461697278
tp266
sS'/storage/a/wayand/cmss80x/Zll_DYJetsToLL_M-50_amcatnloFXFX-pythia8_25ns_v7_job_1278_skim80.root'
p267
(I653082634
F1461731754
tp268
sS'/storage/a/wayand/cmss80x/Zll_DYJetsToLL_M-50_amcatnloFXFX-pythia8_25ns_v7_job_1051_skim80.root'
p269
(I670807064
F1461733198
tp270
sS'/storage/a/wayand/cmss80x/Zll_DYJetsToLL_M-50_amcatnloFXFX-pythia8_25ns_v7_job_1215_skim80.root'
p271
(I372730772
F1461726870
tp272
sS'/storage/a/wayand/cmss80x/Zll_DYJetsToLL_M-50_amcatnloFXFX-pythia8_25ns_v7_job_73_skim80.root'
p273
(I414932541
F1461690245
tp274
sS'/storage/a/wayand/cmss80x/Zll_DYJetsToLL_M-50_amcatnloFXFX-pythia8_25ns_v7_job_918_skim80.root'
p275
(I658479569
F1461725509
tp276
sS'/storage/a/wayand/cmss80x/Zll_DYJetsToLL_M-50_amcatnloFXFX-pythia8_25ns_v7_job_1532_skim80.root'
p277
(I444033487
F1461732049
tp278
sS'/storage/a/wayand/cmss80x/Zll_DYJetsToLL_M-50_amcatnloFXFX-pythia8_25ns_v7_job_70_skim80.root'
p279
(I660714415
F1461698367
tp280
sS'/storage/a/wayand/cmss80x/Zll_DYJetsToLL_M-50_amcatnloFXFX-pythia8_25ns_v7_job_334_skim80.root'
p281
(I657677150
F1461695396
tp282
sS'/storage/a/wayand/cmss80x/Zll_DYJetsToLL_M-50_amcatnloFXFX-pythia8_25ns_v7_job_915_skim80.root'
p283
(I652291232
F1461723465
tp284
sS'/storage/a/wayand/cmss80x/Zll_DYJetsToLL_M-50_amcatnloFXFX-pythia8_25ns_v7_job_684_skim80.root'
p285
(I657675179
F1461716312
tp286
sS'/storage/a/wayand/cmss80x/Zll_DYJetsToLL_M-50_amcatnloFXFX-pythia8_25ns_v7_job_12_skim80.root'
p287
(I658616925
F1461697295
tp288
sS'/storage/a/wayand/cmss80x/Zll_DYJetsToLL_M-50_amcatnloFXFX-pythia8_25ns_v7_job_221_skim80.root'
p289
(I577305162
F1461701568
tp290
sS'/storage/a/wayand/cmss80x/Zll_DYJetsToLL_M-50_amcatnloFXFX-pythia8_25ns_v7_job_69_skim80.root'
p291
(I606882921
F1461695790
tp292
sS'/storage/a/wayand/cmss80x/Zll_DYJetsToLL_M-50_amcatnloFXFX-pythia8_25ns_v7_job_1041_skim80.root'
p293
(I609729248
F1461732142
tp294
sS'/storage/a/wayand/cmss80x/Zll_DYJetsToLL_M-50_amcatnloFXFX-pythia8_25ns_v7_job_1537_skim80.root'
p295
(I454033829
F1461734750
tp296
sS'/storage/a/wayand/cmss80x/Zll_DYJetsToLL_M-50_amcatnloFXFX-pythia8_25ns_v7_job_268_skim80.root'
p297
(I561058640
F1461694078
tp298
sS'/storage/a/wayand/cmss80x/Zll_DYJetsToLL_M-50_amcatnloFXFX-pythia8_25ns_v7_job_501_skim80.root'
p299
(I668898473
F1461698680
tp300
sS'/storage/a/wayand/cmss80x/Zll_DYJetsToLL_M-50_amcatnloFXFX-pythia8_25ns_v7_job_190_skim80.root'
p301
(I354237066
F1461686720
tp302
sS'/storage/a/wayand/cmss80x/Zll_DYJetsToLL_M-50_amcatnloFXFX-pythia8_25ns_v7_job_485_skim80.root'
p303
(I671400363
F1461698667
tp304
sS'/storage/a/wayand/cmss80x/Zll_DYJetsToLL_M-50_amcatnloFXFX-pythia8_25ns_v7_job_376_skim80.root'
p305
(I669459764
F1461699132
tp306
sS'/storage/a/wayand/cmss80x/Zll_DYJetsToLL_M-50_amcatnloFXFX-pythia8_25ns_v7_job_7_skim80.root'
p307
(I647729602
F1461704344
tp308
sS'/storage/a/wayand/cmss80x/Zll_DYJetsToLL_M-50_amcatnloFXFX-pythia8_25ns_v7_job_398_skim80.root'
p309
(I668808032
F1461698677
tp310
sS'/storage/a/wayand/cmss80x/Zll_DYJetsToLL_M-50_amcatnloFXFX-pythia8_25ns_v7_job_454_skim80.root'
p311
(I654507814
F1461696652
tp312
sS'/storage/a/wayand/cmss80x/Zll_DYJetsToLL_M-50_amcatnloFXFX-pythia8_25ns_v7_job_511_skim80.root'
p313
(I663706051
F1461697053
tp314
sS'/storage/a/wayand/cmss80x/Zll_DYJetsToLL_M-50_amcatnloFXFX-pythia8_25ns_v7_job_156_skim80.root'
p315
(I423237183
F1461689927
tp316
sS'/storage/a/wayand/cmss80x/Zll_DYJetsToLL_M-50_amcatnloFXFX-pythia8_25ns_v7_job_133_skim80.root'
p317
(I468512218
F1461690596
tp318
sS'/storage/a/wayand/cmss80x/Zll_DYJetsToLL_M-50_amcatnloFXFX-pythia8_25ns_v7_job_861_skim80.root'
p319
(I432102654
F1461717303
tp320
sS'/storage/a/wayand/cmss80x/Zll_DYJetsToLL_M-50_amcatnloFXFX-pythia8_25ns_v7_job_998_skim80.root'
p321
(I446323068
F1461725087
tp322
sS'/storage/a/wayand/cmss80x/Zll_DYJetsToLL_M-50_amcatnloFXFX-pythia8_25ns_v7_job_269_skim80.root'
p323
(I357539054
F1461716405
tp324
sS'/storage/a/wayand/cmss80x/Zll_DYJetsToLL_M-50_amcatnloFXFX-pythia8_25ns_v7_job_871_skim80.root'
p325
(I663475571
F1461722558
tp326
sS'/storage/a/wayand/cmss80x/Zll_DYJetsToLL_M-50_amcatnloFXFX-pythia8_25ns_v7_job_795_skim80.root'
p327
(I671594536
F1461718817
tp328
sS'/storage/a/wayand/cmss80x/Zll_DYJetsToLL_M-50_amcatnloFXFX-pythia8_25ns_v7_job_747_skim80.root'
p329
(I386875918
F1461712354
tp330
sS'/storage/a/wayand/cmss80x/Zll_DYJetsToLL_M-50_amcatnloFXFX-pythia8_25ns_v7_job_461_skim80.root'
p331
(I672379716
F1461698795
tp332
sS'/storage/a/wayand/cmss80x/Zll_DYJetsToLL_M-50_amcatnloFXFX-pythia8_25ns_v7_job_108_skim80.root'
p333
(I655897480
F1461699041
tp334
sS'/storage/a/wayand/cmss80x/Zll_DYJetsToLL_M-50_amcatnloFXFX-pythia8_25ns_v7_job_422_skim80.root'
p335
(I558282931
F1461694241
tp336
sS'/storage/a/wayand/cmss80x/Zll_DYJetsToLL_M-50_amcatnloFXFX-pythia8_25ns_v7_job_157_skim80.root'
p337
(I656795776
F1461698091
tp338
sS'/storage/a/wayand/cmss80x/Zll_DYJetsToLL_M-50_amcatnloFXFX-pythia8_25ns_v7_job_38_skim80.root'
p339
(I657417471
F1461696925
tp340
sS'/storage/a/wayand/cmss80x/Zll_DYJetsToLL_M-50_amcatnloFXFX-pythia8_25ns_v7_job_1630_skim80.root'
p341
(I376422475
F1461732611
tp342
sS'/storage/a/wayand/cmss80x/Zll_DYJetsToLL_M-50_amcatnloFXFX-pythia8_25ns_v7_job_65_skim80.root'
p343
(I658366927
F1461699404
tp344
sS'/storage/a/wayand/cmss80x/Zll_DYJetsToLL_M-50_amcatnloFXFX-pythia8_25ns_v7_job_488_skim80.root'
p345
(I659347930
F1461697696
tp346
sS'/storage/a/wayand/cmss80x/Zll_DYJetsToLL_M-50_amcatnloFXFX-pythia8_25ns_v7_job_1563_skim80.root'
p347
(I379490914
F1461732892
tp348
sS'/storage/a/wayand/cmss80x/Zll_DYJetsToLL_M-50_amcatnloFXFX-pythia8_25ns_v7_job_904_skim80.root'
p349
(I355154235
F1461716667
tp350
sS'/storage/a/wayand/cmss80x/Zll_DYJetsToLL_M-50_amcatnloFXFX-pythia8_25ns_v7_job_323_skim80.root'
p351
(I661153228
F1461696901
tp352
sS'/storage/a/wayand/cmss80x/Zll_DYJetsToLL_M-50_amcatnloFXFX-pythia8_25ns_v7_job_493_skim80.root'
p353
(I653442739
F1461696902
tp354
sS'/storage/a/wayand/cmss80x/Zll_DYJetsToLL_M-50_amcatnloFXFX-pythia8_25ns_v7_job_241_skim80.root'
p355
(I552959562
F1461692640
tp356
sS'/storage/a/wayand/cmss80x/Zll_DYJetsToLL_M-50_amcatnloFXFX-pythia8_25ns_v7_job_978_skim80.root'
p357
(I664014308
F1461729885
tp358
sS'/storage/a/wayand/cmss80x/Zll_DYJetsToLL_M-50_amcatnloFXFX-pythia8_25ns_v7_job_818_skim80.root'
p359
(I670105132
F1461722867
tp360
sS'/storage/a/wayand/cmss80x/Zll_DYJetsToLL_M-50_amcatnloFXFX-pythia8_25ns_v7_job_1527_skim80.root'
p361
(I144125596
F1461725491
tp362
sS'/storage/a/wayand/cmss80x/Zll_DYJetsToLL_M-50_amcatnloFXFX-pythia8_25ns_v7_job_126_skim80.root'
p363
(I27438730
F1461677573
tp364
sS'/storage/a/wayand/cmss80x/Zll_DYJetsToLL_M-50_amcatnloFXFX-pythia8_25ns_v7_job_834_skim80.root'
p365
(I657218905
F1461720552
tp366
sS'/storage/a/wayand/cmss80x/Zll_DYJetsToLL_M-50_amcatnloFXFX-pythia8_25ns_v7_job_1276_skim80.root'
p367
(I661827441
F1461735391
tp368
sS'/storage/a/wayand/cmss80x/Zll_DYJetsToLL_M-50_amcatnloFXFX-pythia8_25ns_v7_job_985_skim80.root'
p369
(I674034061
F1461731639
tp370
sS'/storage/a/wayand/cmss80x/Zll_DYJetsToLL_M-50_amcatnloFXFX-pythia8_25ns_v7_job_328_skim80.root'
p371
(I651119332
F1461727576
tp372
sS'/storage/a/wayand/cmss80x/Zll_DYJetsToLL_M-50_amcatnloFXFX-pythia8_25ns_v7_job_956_skim80.root'
p373
(I660462195
F1461730826
tp374
sS'/storage/a/wayand/cmss80x/Zll_DYJetsToLL_M-50_amcatnloFXFX-pythia8_25ns_v7_job_1349_skim80.root'
p375
(I375831669
F1461729450
tp376
sS'/storage/a/wayand/cmss80x/Zll_DYJetsToLL_M-50_amcatnloFXFX-pythia8_25ns_v7_job_1100_skim80.root'
p377
(I335719879
F1461723736
tp378
sS'/storage/a/wayand/cmss80x/Zll_DYJetsToLL_M-50_amcatnloFXFX-pythia8_25ns_v7_job_231_skim80.root'
p379
(I645917970
F1461696088
tp380
sS'/storage/a/wayand/cmss80x/Zll_DYJetsToLL_M-50_amcatnloFXFX-pythia8_25ns_v7_job_109_skim80.root'
p381
(I656510818
F1461697196
tp382
sS'/storage/a/wayand/cmss80x/Zll_DYJetsToLL_M-50_amcatnloFXFX-pythia8_25ns_v7_job_766_skim80.root'
p383
(I455378929
F1461720718
tp384
sS'/storage/a/wayand/cmss80x/Zll_DYJetsToLL_M-50_amcatnloFXFX-pythia8_25ns_v7_job_695_skim80.root'
p385
(I515011060
F1461714192
tp386
sS'/storage/a/wayand/cmss80x/Zll_DYJetsToLL_M-50_amcatnloFXFX-pythia8_25ns_v7_job_1134_skim80.root'
p387
(I439268842
F1461726910
tp388
sS'/storage/a/wayand/cmss80x/Zll_DYJetsToLL_M-50_amcatnloFXFX-pythia8_25ns_v7_job_508_skim80.root'
p389
(I670028800
F1461697112
tp390
sS'/storage/a/wayand/cmss80x/Zll_DYJetsToLL_M-50_amcatnloFXFX-pythia8_25ns_v7_job_893_skim80.root'
p391
(I646002887
F1461723935
tp392
sS'/storage/a/wayand/cmss80x/Zll_DYJetsToLL_M-50_amcatnloFXFX-pythia8_25ns_v7_job_1273_skim80.root'
p393
(I435587592
F1461729843
tp394
sS'/storage/a/wayand/cmss80x/Zll_DYJetsToLL_M-50_amcatnloFXFX-pythia8_25ns_v7_job_1140_skim80.root'
p395
(I670696570
F1461734339
tp396
sS'/storage/a/wayand/cmss80x/Zll_DYJetsToLL_M-50_amcatnloFXFX-pythia8_25ns_v7_job_378_skim80.root'
p397
(I459081617
F1461692355
tp398
sS'/storage/a/wayand/cmss80x/Zll_DYJetsToLL_M-50_amcatnloFXFX-pythia8_25ns_v7_job_765_skim80.root'
p399
(I391996228
F1461711320
tp400
sS'/storage/a/wayand/cmss80x/Zll_DYJetsToLL_M-50_amcatnloFXFX-pythia8_25ns_v7_job_919_skim80.root'
p401
(I655245433
F1461721558
tp402
sS'/storage/a/wayand/cmss80x/Zll_DYJetsToLL_M-50_amcatnloFXFX-pythia8_25ns_v7_job_381_skim80.root'
p403
(I419968292
F1461689804
tp404
sS'/storage/a/wayand/cmss80x/Zll_DYJetsToLL_M-50_amcatnloFXFX-pythia8_25ns_v7_job_1225_skim80.root'
p405
(I382391598
F1461728585
tp406
sS'/storage/a/wayand/cmss80x/Zll_DYJetsToLL_M-50_amcatnloFXFX-pythia8_25ns_v7_job_1151_skim80.root'
p407
(I672937751
F1461733489
tp408
sS'/storage/a/wayand/cmss80x/Zll_DYJetsToLL_M-50_amcatnloFXFX-pythia8_25ns_v7_job_1493_skim80.root'
p409
(I356018897
F1461732043
tp410
sS'/storage/a/wayand/cmss80x/Zll_DYJetsToLL_M-50_amcatnloFXFX-pythia8_25ns_v7_job_670_skim80.root'
p411
(I656157351
F1461717581
tp412
sS'/storage/a/wayand/cmss80x/Zll_DYJetsToLL_M-50_amcatnloFXFX-pythia8_25ns_v7_job_553_skim80.root'
p413
(I128599791
F1461681372
tp414
sS'/storage/a/wayand/cmss80x/Zll_DYJetsToLL_M-50_amcatnloFXFX-pythia8_25ns_v7_job_1049_skim80.root'
p415
(I644573523
F1461733274
tp416
sS'/storage/a/wayand/cmss80x/Zll_DYJetsToLL_M-50_amcatnloFXFX-pythia8_25ns_v7_job_468_skim80.root'
p417
(I667400768
F1461698286
tp418
sS'/storage/a/wayand/cmss80x/Zll_DYJetsToLL_M-50_amcatnloFXFX-pythia8_25ns_v7_job_1226_skim80.root'
p419
(I447290731
F1461727947
tp420
sS'/storage/a/wayand/cmss80x/Zll_DYJetsToLL_M-50_amcatnloFXFX-pythia8_25ns_v7_job_1247_skim80.root'
p421
(I652145376
F1461735840
tp422
sS'/storage/a/wayand/cmss80x/Zll_DYJetsToLL_M-50_amcatnloFXFX-pythia8_25ns_v7_job_888_skim80.root'
p423
(I659421790
F1461725350
tp424
sS'/storage/a/wayand/cmss80x/Zll_DYJetsToLL_M-50_amcatnloFXFX-pythia8_25ns_v7_job_618_skim80.root'
p425
(I520410321
F1461711464
tp426
sS'/storage/a/wayand/cmss80x/Zll_DYJetsToLL_M-50_amcatnloFXFX-pythia8_25ns_v7_job_1230_skim80.root'
p427
(I386344424
F1461725481
tp428
sS'/storage/a/wayand/cmss80x/Zll_DYJetsToLL_M-50_amcatnloFXFX-pythia8_25ns_v7_job_668_skim80.root'
p429
(I655672290
F1461716100
tp430
sS'/storage/a/wayand/cmss80x/Zll_DYJetsToLL_M-50_amcatnloFXFX-pythia8_25ns_v7_job_749_skim80.root'
p431
(I590577541
F1461718484
tp432
sS'/storage/a/wayand/cmss80x/Zll_DYJetsToLL_M-50_amcatnloFXFX-pythia8_25ns_v7_job_58_skim80.root'
p433
(I663735024
F1461704142
tp434
sS'/storage/a/wayand/cmss80x/Zll_DYJetsToLL_M-50_amcatnloFXFX-pythia8_25ns_v7_job_1616_skim80.root'
p435
(I471202430
F1461737093
tp436
sS'/storage/a/wayand/cmss80x/Zll_DYJetsToLL_M-50_amcatnloFXFX-pythia8_25ns_v7_job_319_skim80.root'
p437
(I671034778
F1461700144
tp438
sS'/storage/a/wayand/cmss80x/Zll_DYJetsToLL_M-50_amcatnloFXFX-pythia8_25ns_v7_job_510_skim80.root'
p439
(I668221106
F1461697287
tp440
sS'/storage/a/wayand/cmss80x/Zll_DYJetsToLL_M-50_amcatnloFXFX-pythia8_25ns_v7_job_713_skim80.root'
p441
(I654934786
F1461724847
tp442
sS'/storage/a/wayand/cmss80x/Zll_DYJetsToLL_M-50_amcatnloFXFX-pythia8_25ns_v7_job_1112_skim80.root'
p443
(I348765793
F1461724530
tp444
sS'/storage/a/wayand/cmss80x/Zll_DYJetsToLL_M-50_amcatnloFXFX-pythia8_25ns_v7_job_1176_skim80.root'
p445
(I656995256
F1461733251
tp446
sS'/storage/a/wayand/cmss80x/Zll_DYJetsToLL_M-50_amcatnloFXFX-pythia8_25ns_v7_job_1012_skim80.root'
p447
(I669999075
F1461733741
tp448
sS'/storage/a/wayand/cmss80x/Zll_DYJetsToLL_M-50_amcatnloFXFX-pythia8_25ns_v7_job_1016_skim80.root'
p449
(I652175158
F1461729004
tp450
sS'/storage/a/wayand/cmss80x/Zll_DYJetsToLL_M-50_amcatnloFXFX-pythia8_25ns_v7_job_721_skim80.root'
p451
(I668064308
F1461719585
tp452
sS'/storage/a/wayand/cmss80x/Zll_DYJetsToLL_M-50_amcatnloFXFX-pythia8_25ns_v7_job_979_skim80.root'
p453
(I659013809
F1461728170
tp454
sS'/storage/a/wayand/cmss80x/Zll_DYJetsToLL_M-50_amcatnloFXFX-pythia8_25ns_v7_job_632_skim80.root'
p455
(I672728038
F1461716261
tp456
sS'/storage/a/wayand/cmss80x/Zll_DYJetsToLL_M-50_amcatnloFXFX-pythia8_25ns_v7_job_696_skim80.root'
p457
(I657801887
F1461717747
tp458
sS'/storage/a/wayand/cmss80x/Zll_DYJetsToLL_M-50_amcatnloFXFX-pythia8_25ns_v7_job_289_skim80.root'
p459
(I663738071
F1461693883
tp460
sS'/storage/a/wayand/cmss80x/Zll_DYJetsToLL_M-50_amcatnloFXFX-pythia8_25ns_v7_job_758_skim80.root'
p461
(I632040403
F1461719827
tp462
sS'/storage/a/wayand/cmss80x/Zll_DYJetsToLL_M-50_amcatnloFXFX-pythia8_25ns_v7_job_149_skim80.root'
p463
(I347102777
F1461688023
tp464
sS'/storage/a/wayand/cmss80x/Zll_DYJetsToLL_M-50_amcatnloFXFX-pythia8_25ns_v7_job_379_skim80.root'
p465
(I352711300
F1461687514
tp466
sS'/storage/a/wayand/cmss80x/Zll_DYJetsToLL_M-50_amcatnloFXFX-pythia8_25ns_v7_job_1141_skim80.root'
p467
(I652819002
F1461732874
tp468
sS'/storage/a/wayand/cmss80x/Zll_DYJetsToLL_M-50_amcatnloFXFX-pythia8_25ns_v7_job_1302_skim80.root'
p469
(I669238593
F1461735792
tp470
sS'/storage/a/wayand/cmss80x/Zll_DYJetsToLL_M-50_amcatnloFXFX-pythia8_25ns_v7_job_561_skim80.root'
p471
(I662263026
F1461709206
tp472
sS'/storage/a/wayand/cmss80x/Zll_DYJetsToLL_M-50_amcatnloFXFX-pythia8_25ns_v7_job_122_skim80.root'
p473
(I665807420
F1461697264
tp474
sS'/storage/a/wayand/cmss80x/Zll_DYJetsToLL_M-50_amcatnloFXFX-pythia8_25ns_v7_job_683_skim80.root'
p475
(I402161164
F1461709458
tp476
sS'/storage/a/wayand/cmss80x/Zll_DYJetsToLL_M-50_amcatnloFXFX-pythia8_25ns_v7_job_1287_skim80.root'
p477
(I351240883
F1461729309
tp478
sS'/storage/a/wayand/cmss80x/Zll_DYJetsToLL_M-50_amcatnloFXFX-pythia8_25ns_v7_job_957_skim80.root'
p479
(I671620014
F1461728857
tp480
sS'/storage/a/wayand/cmss80x/Zll_DYJetsToLL_M-50_amcatnloFXFX-pythia8_25ns_v7_job_678_skim80.root'
p481
(I401405300
F1461713639
tp482
sS'/storage/a/wayand/cmss80x/Zll_DYJetsToLL_M-50_amcatnloFXFX-pythia8_25ns_v7_job_1528_skim80.root'
p483
(I345296230
F1461730706
tp484
sS'/storage/a/wayand/cmss80x/Zll_DYJetsToLL_M-50_amcatnloFXFX-pythia8_25ns_v7_job_1185_skim80.root'
p485
(I410572601
F1461727120
tp486
sS'/storage/a/wayand/cmss80x/Zll_DYJetsToLL_M-50_amcatnloFXFX-pythia8_25ns_v7_job_648_skim80.root'
p487
(I457390786
F1461709188
tp488
sS'/storage/a/wayand/cmss80x/Zll_DYJetsToLL_M-50_amcatnloFXFX-pythia8_25ns_v7_job_605_skim80.root'
p489
(I648753452
F1461696850
tp490
sS'/storage/a/wayand/cmss80x/Zll_DYJetsToLL_M-50_amcatnloFXFX-pythia8_25ns_v7_job_351_skim80.root'
p491
(I663025933
F1461699305
tp492
sS'/storage/a/wayand/cmss80x/Zll_DYJetsToLL_M-50_amcatnloFXFX-pythia8_25ns_v7_job_1143_skim80.root'
p493
(I655340858
F1461733967
tp494
sS'/storage/a/wayand/cmss80x/Zll_DYJetsToLL_M-50_amcatnloFXFX-pythia8_25ns_v7_job_1474_skim80.root'
p495
(I373633317
F1461733086
tp496
sS'/storage/a/wayand/cmss80x/Zll_DYJetsToLL_M-50_amcatnloFXFX-pythia8_25ns_v7_job_820_skim80.root'
p497
(I656617291
F1461720705
tp498
sS'/storage/a/wayand/cmss80x/Zll_DYJetsToLL_M-50_amcatnloFXFX-pythia8_25ns_v7_job_808_skim80.root'
p499
(I655505970
F1461720864
tp500
sS'/storage/a/wayand/cmss80x/Zll_DYJetsToLL_M-50_amcatnloFXFX-pythia8_25ns_v7_job_102_skim80.root'
p501
(I664418710
F1461695854
tp502
sS'/storage/a/wayand/cmss80x/Zll_DYJetsToLL_M-50_amcatnloFXFX-pythia8_25ns_v7_job_999_skim80.root'
p503
(I642458826
F1461731470
tp504
sS'/storage/a/wayand/cmss80x/Zll_DYJetsToLL_M-50_amcatnloFXFX-pythia8_25ns_v7_job_1279_skim80.root'
p505
(I427768085
F1461728118
tp506
sS'/storage/a/wayand/cmss80x/Zll_DYJetsToLL_M-50_amcatnloFXFX-pythia8_25ns_v7_job_874_skim80.root'
p507
(I672622258
F1461721086
tp508
sS'/storage/a/wayand/cmss80x/Zll_DYJetsToLL_M-50_amcatnloFXFX-pythia8_25ns_v7_job_56_skim80.root'
p509
(I475529833
F1461691619
tp510
sS'/storage/a/wayand/cmss80x/Zll_DYJetsToLL_M-50_amcatnloFXFX-pythia8_25ns_v7_job_1156_skim80.root'
p511
(I671031100
F1461731995
tp512
sS'/storage/a/wayand/cmss80x/Zll_DYJetsToLL_M-50_amcatnloFXFX-pythia8_25ns_v7_job_912_skim80.root'
p513
(I662461194
F1461724178
tp514
sS'/storage/a/wayand/cmss80x/Zll_DYJetsToLL_M-50_amcatnloFXFX-pythia8_25ns_v7_job_1629_skim80.root'
p515
(I330391044
F1461733777
tp516
sS'/storage/a/wayand/cmss80x/Zll_DYJetsToLL_M-50_amcatnloFXFX-pythia8_25ns_v7_job_1444_skim80.root'
p517
(I553203375
F1461736756
tp518
sS'/storage/a/wayand/cmss80x/Zll_DYJetsToLL_M-50_amcatnloFXFX-pythia8_25ns_v7_job_1054_skim80.root'
p519
(I658006157
F1461732380
tp520
sS'/storage/a/wayand/cmss80x/Zll_DYJetsToLL_M-50_amcatnloFXFX-pythia8_25ns_v7_job_417_skim80.root'
p521
(I387661835
F1461687963
tp522
sS'/storage/a/wayand/cmss80x/Zll_DYJetsToLL_M-50_amcatnloFXFX-pythia8_25ns_v7_job_429_skim80.root'
p523
(I354657521
F1461687458
tp524
sS'/storage/a/wayand/cmss80x/Zll_DYJetsToLL_M-50_amcatnloFXFX-pythia8_25ns_v7_job_1361_skim80.root'
p525
(I673073173
F1461737492
tp526
sS'/storage/a/wayand/cmss80x/Zll_DYJetsToLL_M-50_amcatnloFXFX-pythia8_25ns_v7_job_170_skim80.root'
p527
(I657854876
F1461698471
tp528
sS'/storage/a/wayand/cmss80x/Zll_DYJetsToLL_M-50_amcatnloFXFX-pythia8_25ns_v7_job_1364_skim80.root'
p529
(I657619102
F1461734104
tp530
sS'/storage/a/wayand/cmss80x/Zll_DYJetsToLL_M-50_amcatnloFXFX-pythia8_25ns_v7_job_883_skim80.root'
p531
(I667671734
F1461723969
tp532
sS'/storage/a/wayand/cmss80x/Zll_DYJetsToLL_M-50_amcatnloFXFX-pythia8_25ns_v7_job_1263_skim80.root'
p533
(I378409060
F1461726320
tp534
sS'/storage/a/wayand/cmss80x/Zll_DYJetsToLL_M-50_amcatnloFXFX-pythia8_25ns_v7_job_568_skim80.root'
p535
(I658167671
F1461709534
tp536
sS'/storage/a/wayand/cmss80x/Zll_DYJetsToLL_M-50_amcatnloFXFX-pythia8_25ns_v7_job_583_skim80.root'
p537
(I656919271
F1461695300
tp538
sS'/storage/a/wayand/cmss80x/Zll_DYJetsToLL_M-50_amcatnloFXFX-pythia8_25ns_v7_job_409_skim80.root'
p539
(I642727502
F1461695598
tp540
sS'/storage/a/wayand/cmss80x/Zll_DYJetsToLL_M-50_amcatnloFXFX-pythia8_25ns_v7_job_1068_skim80.root'
p541
(I367639331
F1461722792
tp542
sS'/storage/a/wayand/cmss80x/Zll_DYJetsToLL_M-50_amcatnloFXFX-pythia8_25ns_v7_job_506_skim80.root'
p543
(I647777094
F1461698028
tp544
sS'/storage/a/wayand/cmss80x/Zll_DYJetsToLL_M-50_amcatnloFXFX-pythia8_25ns_v7_job_188_skim80.root'
p545
(I350143466
F1461687248
tp546
sS'/storage/a/wayand/cmss80x/Zll_DYJetsToLL_M-50_amcatnloFXFX-pythia8_25ns_v7_job_981_skim80.root'
p547
(I652931304
F1461732082
tp548
sS'/storage/a/wayand/cmss80x/Zll_DYJetsToLL_M-50_amcatnloFXFX-pythia8_25ns_v7_job_1481_skim80.root'
p549
(I443098436
F1461735027
tp550
sS'/storage/a/wayand/cmss80x/Zll_DYJetsToLL_M-50_amcatnloFXFX-pythia8_25ns_v7_job_250_skim80.root'
p551
(I557361113
F1461692843
tp552
sS'/storage/a/wayand/cmss80x/Zll_DYJetsToLL_M-50_amcatnloFXFX-pythia8_25ns_v7_job_1315_skim80.root'
p553
(I395048230
F1461728303
tp554
sS'/storage/a/wayand/cmss80x/Zll_DYJetsToLL_M-50_amcatnloFXFX-pythia8_25ns_v7_job_514_skim80.root'
p555
(I645487084
F1461695760
tp556
sS'/storage/a/wayand/cmss80x/Zll_DYJetsToLL_M-50_amcatnloFXFX-pythia8_25ns_v7_job_1353_skim80.root'
p557
(I663508960
F1461737287
tp558
sS'/storage/a/wayand/cmss80x/Zll_DYJetsToLL_M-50_amcatnloFXFX-pythia8_25ns_v7_job_552_skim80.root'
p559
(I344979931
F1461687518
tp560
sS'/storage/a/wayand/cmss80x/Zll_DYJetsToLL_M-50_amcatnloFXFX-pythia8_25ns_v7_job_1466_skim80.root'
p561
(I663539967
F1461738296
tp562
sS'/storage/a/wayand/cmss80x/Zll_DYJetsToLL_M-50_amcatnloFXFX-pythia8_25ns_v7_job_1382_skim80.root'
p563
(I207419688
F1461725254
tp564
sS'/storage/a/wayand/cmss80x/Zll_DYJetsToLL_M-50_amcatnloFXFX-pythia8_25ns_v7_job_1309_skim80.root'
p565
(I416929754
F1461731389
tp566
sS'/storage/a/wayand/cmss80x/Zll_DYJetsToLL_M-50_amcatnloFXFX-pythia8_25ns_v7_job_1436_skim80.root'
p567
(I378415495
F1461732163
tp568
sS'/storage/a/wayand/cmss80x/Zll_DYJetsToLL_M-50_amcatnloFXFX-pythia8_25ns_v7_job_1316_skim80.root'
p569
(I367435848
F1461729279
tp570
sS'/storage/a/wayand/cmss80x/Zll_DYJetsToLL_M-50_amcatnloFXFX-pythia8_25ns_v7_job_1556_skim80.root'
p571
(I350230294
F1461732516
tp572
sS'/storage/a/wayand/cmss80x/Zll_DYJetsToLL_M-50_amcatnloFXFX-pythia8_25ns_v7_job_386_skim80.root'
p573
(I655247805
F1461694861
tp574
sS'/storage/a/wayand/cmss80x/Zll_DYJetsToLL_M-50_amcatnloFXFX-pythia8_25ns_v7_job_824_skim80.root'
p575
(I664796381
F1461717942
tp576
sS'/storage/a/wayand/cmss80x/Zll_DYJetsToLL_M-50_amcatnloFXFX-pythia8_25ns_v7_job_389_skim80.root'
p577
(I656723726
F1461695968
tp578
sS'/storage/a/wayand/cmss80x/Zll_DYJetsToLL_M-50_amcatnloFXFX-pythia8_25ns_v7_job_1201_skim80.root'
p579
(I365035030
F1461724188
tp580
sS'/storage/a/wayand/cmss80x/Zll_DYJetsToLL_M-50_amcatnloFXFX-pythia8_25ns_v7_job_564_skim80.root'
p581
(I353571210
F1461687396
tp582
sS'/storage/a/wayand/cmss80x/Zll_DYJetsToLL_M-50_amcatnloFXFX-pythia8_25ns_v7_job_1307_skim80.root'
p583
(I348502057
F1461726677
tp584
sS'/storage/a/wayand/cmss80x/Zll_DYJetsToLL_M-50_amcatnloFXFX-pythia8_25ns_v7_job_1115_skim80.root'
p585
(I661712464
F1461732966
tp586
sS'/storage/a/wayand/cmss80x/Zll_DYJetsToLL_M-50_amcatnloFXFX-pythia8_25ns_v7_job_714_skim80.root'
p587
(I576949465
F1461716497
tp588
sS'/storage/a/wayand/cmss80x/Zll_DYJetsToLL_M-50_amcatnloFXFX-pythia8_25ns_v7_job_137_skim80.root'
p589
(I406740517
F1461690023
tp590
sS'/storage/a/wayand/cmss80x/Zll_DYJetsToLL_M-50_amcatnloFXFX-pythia8_25ns_v7_job_22_skim80.root'
p591
(I650129709
F1461714925
tp592
sS'/storage/a/wayand/cmss80x/Zll_DYJetsToLL_M-50_amcatnloFXFX-pythia8_25ns_v7_job_1367_skim80.root'
p593
(I557326008
F1461733758
tp594
sS'/storage/a/wayand/cmss80x/Zll_DYJetsToLL_M-50_amcatnloFXFX-pythia8_25ns_v7_job_647_skim80.root'
p595
(I671700988
F1461714277
tp596
sS'/storage/a/wayand/cmss80x/Zll_DYJetsToLL_M-50_amcatnloFXFX-pythia8_25ns_v7_job_699_skim80.root'
p597
(I515602953
F1461723015
tp598
sS'/storage/a/wayand/cmss80x/Zll_DYJetsToLL_M-50_amcatnloFXFX-pythia8_25ns_v7_job_988_skim80.root'
p599
(I659739906
F1461731214
tp600
sS'/storage/a/wayand/cmss80x/Zll_DYJetsToLL_M-50_amcatnloFXFX-pythia8_25ns_v7_job_901_skim80.root'
p601
(I327613934
F1461719788
tp602
sS'/storage/a/wayand/cmss80x/Zll_DYJetsToLL_M-50_amcatnloFXFX-pythia8_25ns_v7_job_423_skim80.root'
p603
(I363830068
F1461688030
tp604
sS'/storage/a/wayand/cmss80x/Zll_DYJetsToLL_M-50_amcatnloFXFX-pythia8_25ns_v7_job_1344_skim80.root'
p605
(I516511233
F1461734731
tp606
sS'/storage/a/wayand/cmss80x/Zll_DYJetsToLL_M-50_amcatnloFXFX-pythia8_25ns_v7_job_457_skim80.root'
p607
(I670327128
F1461696974
tp608
sS'/storage/a/wayand/cmss80x/Zll_DYJetsToLL_M-50_amcatnloFXFX-pythia8_25ns_v7_job_335_skim80.root'
p609
(I657456087
F1461695561
tp610
sS'/storage/a/wayand/cmss80x/Zll_DYJetsToLL_M-50_amcatnloFXFX-pythia8_25ns_v7_job_450_skim80.root'
p611
(I657106303
F1461696378
tp612
sS'/storage/a/wayand/cmss80x/Zll_DYJetsToLL_M-50_amcatnloFXFX-pythia8_25ns_v7_job_265_skim80.root'
p613
(I373013156
F1461687473
tp614
sS'/storage/a/wayand/cmss80x/Zll_DYJetsToLL_M-50_amcatnloFXFX-pythia8_25ns_v7_job_1211_skim80.root'
p615
(I442974389
F1461726650
tp616
sS'/storage/a/wayand/cmss80x/Zll_DYJetsToLL_M-50_amcatnloFXFX-pythia8_25ns_v7_job_86_skim80.root'
p617
(I659472422
F1461705253
tp618
sS'/storage/a/wayand/cmss80x/Zll_DYJetsToLL_M-50_amcatnloFXFX-pythia8_25ns_v7_job_970_skim80.root'
p619
(I348770676
F1461720491
tp620
sS'/storage/a/wayand/cmss80x/Zll_DYJetsToLL_M-50_amcatnloFXFX-pythia8_25ns_v7_job_775_skim80.root'
p621
(I354026701
F1461709949
tp622
sS'/storage/a/wayand/cmss80x/Zll_DYJetsToLL_M-50_amcatnloFXFX-pythia8_25ns_v7_job_891_skim80.root'
p623
(I661817680
F1461723070
tp624
sS'/storage/a/wayand/cmss80x/Zll_DYJetsToLL_M-50_amcatnloFXFX-pythia8_25ns_v7_job_1598_skim80.root'
p625
(I461598512
F1461736103
tp626
sS'/storage/a/wayand/cmss80x/Zll_DYJetsToLL_M-50_amcatnloFXFX-pythia8_25ns_v7_job_1479_skim80.root'
p627
(I418218663
F1461734232
tp628
sS'/storage/a/wayand/cmss80x/Zll_DYJetsToLL_M-50_amcatnloFXFX-pythia8_25ns_v7_job_438_skim80.root'
p629
(I361140128
F1461688118
tp630
sS'/storage/a/wayand/cmss80x/Zll_DYJetsToLL_M-50_amcatnloFXFX-pythia8_25ns_v7_job_1370_skim80.root'
p631
(I200302454
F1461724267
tp632
sS'/storage/a/wayand/cmss80x/Zll_DYJetsToLL_M-50_amcatnloFXFX-pythia8_25ns_v7_job_452_skim80.root'
p633
(I652256293
F1461698657
tp634
sS'/storage/a/wayand/cmss80x/Zll_DYJetsToLL_M-50_amcatnloFXFX-pythia8_25ns_v7_job_310_skim80.root'
p635
(I318162051
F1461684909
tp636
sS'/storage/a/wayand/cmss80x/Zll_DYJetsToLL_M-50_amcatnloFXFX-pythia8_25ns_v7_job_1088_skim80.root'
p637
(I646890970
F1461733304
tp638
sS'/storage/a/wayand/cmss80x/Zll_DYJetsToLL_M-50_amcatnloFXFX-pythia8_25ns_v7_job_1289_skim80.root'
p639
(I391853183
F1461728937
tp640
sS'/storage/a/wayand/cmss80x/Zll_DYJetsToLL_M-50_amcatnloFXFX-pythia8_25ns_v7_job_639_skim80.root'
p641
(I665057884
F1461715022
tp642
sS'/storage/a/wayand/cmss80x/Zll_DYJetsToLL_M-50_amcatnloFXFX-pythia8_25ns_v7_job_130_skim80.root'
p643
(I78988977
F1461679154
tp644
sS'/storage/a/wayand/cmss80x/Zll_DYJetsToLL_M-50_amcatnloFXFX-pythia8_25ns_v7_job_260_skim80.root'
p645
(I435715504
F1461689035
tp646
sS'/storage/a/wayand/cmss80x/Zll_DYJetsToLL_M-50_amcatnloFXFX-pythia8_25ns_v7_job_1430_skim80.root'
p647
(I382676971
F1461732539
tp648
sS'/storage/a/wayand/cmss80x/Zll_DYJetsToLL_M-50_amcatnloFXFX-pythia8_25ns_v7_job_45_skim80.root'
p649
(I672350537
F1461698288
tp650
sS'/storage/a/wayand/cmss80x/Zll_DYJetsToLL_M-50_amcatnloFXFX-pythia8_25ns_v7_job_185_skim80.root'
p651
(I410083567
F1461695346
tp652
sS'/storage/a/wayand/cmss80x/Zll_DYJetsToLL_M-50_amcatnloFXFX-pythia8_25ns_v7_job_1571_skim80.root'
p653
(I254037075
F1461729363
tp654
sS'/storage/a/wayand/cmss80x/Zll_DYJetsToLL_M-50_amcatnloFXFX-pythia8_25ns_v7_job_796_skim80.root'
p655
(I474095273
F1461714748
tp656
sS'/storage/a/wayand/cmss80x/Zll_DYJetsToLL_M-50_amcatnloFXFX-pythia8_25ns_v7_job_1079_skim80.root'
p657
(I668453590
F1461729633
tp658
sS'/storage/a/wayand/cmss80x/Zll_DYJetsToLL_M-50_amcatnloFXFX-pythia8_25ns_v7_job_811_skim80.root'
p659
(I669174171
F1461718023
tp660
sS'/storage/a/wayand/cmss80x/Zll_DYJetsToLL_M-50_amcatnloFXFX-pythia8_25ns_v7_job_112_skim80.root'
p661
(I438335341
F1461690565
tp662
sS'/storage/a/wayand/cmss80x/Zll_DYJetsToLL_M-50_amcatnloFXFX-pythia8_25ns_v7_job_5_skim80.root'
p663
(I667242666
F1461697063
tp664
sS'/storage/a/wayand/cmss80x/Zll_DYJetsToLL_M-50_amcatnloFXFX-pythia8_25ns_v7_job_948_skim80.root'
p665
(I668932463
F1461728049
tp666
sS'/storage/a/wayand/cmss80x/Zll_DYJetsToLL_M-50_amcatnloFXFX-pythia8_25ns_v7_job_857_skim80.root'
p667
(I530331976
F1461717531
tp668
sS'/storage/a/wayand/cmss80x/Zll_DYJetsToLL_M-50_amcatnloFXFX-pythia8_25ns_v7_job_208_skim80.root'
p669
(I506222768
F1461699597
tp670
sS'/storage/a/wayand/cmss80x/Zll_DYJetsToLL_M-50_amcatnloFXFX-pythia8_25ns_v7_job_945_skim80.root'
p671
(I650244391
F1461727864
tp672
sS'/storage/a/wayand/cmss80x/Zll_DYJetsToLL_M-50_amcatnloFXFX-pythia8_25ns_v7_job_98_skim80.root'
p673
(I663218628
F1461694672
tp674
sS'/storage/a/wayand/cmss80x/Zll_DYJetsToLL_M-50_amcatnloFXFX-pythia8_25ns_v7_job_151_skim80.root'
p675
(I338365722
F1461686828
tp676
sS'/storage/a/wayand/cmss80x/Zll_DYJetsToLL_M-50_amcatnloFXFX-pythia8_25ns_v7_job_910_skim80.root'
p677
(I656759572
F1461723320
tp678
sS'/storage/a/wayand/cmss80x/Zll_DYJetsToLL_M-50_amcatnloFXFX-pythia8_25ns_v7_job_1023_skim80.root'
p679
(I666909801
F1461731155
tp680
sS'/storage/a/wayand/cmss80x/Zll_DYJetsToLL_M-50_amcatnloFXFX-pythia8_25ns_v7_job_145_skim80.root'
p681
(I664930142
F1461706545
tp682
sS'/storage/a/wayand/cmss80x/Zll_DYJetsToLL_M-50_amcatnloFXFX-pythia8_25ns_v7_job_483_skim80.root'
p683
(I654072000
F1461699070
tp684
sS'/storage/a/wayand/cmss80x/Zll_DYJetsToLL_M-50_amcatnloFXFX-pythia8_25ns_v7_job_125_skim80.root'
p685
(I354585663
F1461687089
tp686
sS'/storage/a/wayand/cmss80x/Zll_DYJetsToLL_M-50_amcatnloFXFX-pythia8_25ns_v7_job_730_skim80.root'
p687
(I666587175
F1461729969
tp688
sS'/storage/a/wayand/cmss80x/Zll_DYJetsToLL_M-50_amcatnloFXFX-pythia8_25ns_v7_job_532_skim80.root'
p689
(I647074107
F1461697107
tp690
sS'/storage/a/wayand/cmss80x/Zll_DYJetsToLL_M-50_amcatnloFXFX-pythia8_25ns_v7_job_1199_skim80.root'
p691
(I431932989
F1461727977
tp692
sS'/storage/a/wayand/cmss80x/Zll_DYJetsToLL_M-50_amcatnloFXFX-pythia8_25ns_v7_job_798_skim80.root'
p693
(I659637547
F1461718853
tp694
sS'/storage/a/wayand/cmss80x/Zll_DYJetsToLL_M-50_amcatnloFXFX-pythia8_25ns_v7_job_436_skim80.root'
p695
(I609776543
F1461695934
tp696
sS'/storage/a/wayand/cmss80x/Zll_DYJetsToLL_M-50_amcatnloFXFX-pythia8_25ns_v7_job_770_skim80.root'
p697
(I362720716
F1461718142
tp698
sS'/storage/a/wayand/cmss80x/Zll_DYJetsToLL_M-50_amcatnloFXFX-pythia8_25ns_v7_job_1534_skim80.root'
p699
(I371260501
F1461731564
tp700
sS'/storage/a/wayand/cmss80x/Zll_DYJetsToLL_M-50_amcatnloFXFX-pythia8_25ns_v7_job_1011_skim80.root'
p701
(I440400998
F1461723723
tp702
sS'/storage/a/wayand/cmss80x/Zll_DYJetsToLL_M-50_amcatnloFXFX-pythia8_25ns_v7_job_1063_skim80.root'
p703
(I471929697
F1461725016
tp704
sS'/storage/a/wayand/cmss80x/Zll_DYJetsToLL_M-50_amcatnloFXFX-pythia8_25ns_v7_job_402_skim80.root'
p705
(I673472794
F1461696881
tp706
sS'/storage/a/wayand/cmss80x/Zll_DYJetsToLL_M-50_amcatnloFXFX-pythia8_25ns_v7_job_867_skim80.root'
p707
(I663895853
F1461720864
tp708
sS'/storage/a/wayand/cmss80x/Zll_DYJetsToLL_M-50_amcatnloFXFX-pythia8_25ns_v7_job_729_skim80.root'
p709
(I346095166
F1461709112
tp710
sS'/storage/a/wayand/cmss80x/Zll_DYJetsToLL_M-50_amcatnloFXFX-pythia8_25ns_v7_job_388_skim80.root'
p711
(I656567020
F1461694485
tp712
sS'/storage/a/wayand/cmss80x/Zll_DYJetsToLL_M-50_amcatnloFXFX-pythia8_25ns_v7_job_178_skim80.root'
p713
(I547635949
F1461700820
tp714
sS'/storage/a/wayand/cmss80x/Zll_DYJetsToLL_M-50_amcatnloFXFX-pythia8_25ns_v7_job_76_skim80.root'
p715
(I658002427
F1461695676
tp716
sS'/storage/a/wayand/cmss80x/Zll_DYJetsToLL_M-50_amcatnloFXFX-pythia8_25ns_v7_job_1269_skim80.root'
p717
(I468289026
F1461730366
tp718
sS'/storage/a/wayand/cmss80x/Zll_DYJetsToLL_M-50_amcatnloFXFX-pythia8_25ns_v7_job_1178_skim80.root'
p719
(I636228056
F1461733738
tp720
sS'/storage/a/wayand/cmss80x/Zll_DYJetsToLL_M-50_amcatnloFXFX-pythia8_25ns_v7_job_264_skim80.root'
p721
(I383674067
F1461686972
tp722
sS'/storage/a/wayand/cmss80x/Zll_DYJetsToLL_M-50_amcatnloFXFX-pythia8_25ns_v7_job_735_skim80.root'
p723
(I521683660
F1461721962
tp724
sS'/storage/a/wayand/cmss80x/Zll_DYJetsToLL_M-50_amcatnloFXFX-pythia8_25ns_v7_job_171_skim80.root'
p725
(I665532313
F1461698744
tp726
sS'/storage/a/wayand/cmss80x/Zll_DYJetsToLL_M-50_amcatnloFXFX-pythia8_25ns_v7_job_1503_skim80.root'
p727
(I653327275
F1461737860
tp728
sS'/storage/a/wayand/cmss80x/Zll_DYJetsToLL_M-50_amcatnloFXFX-pythia8_25ns_v7_job_941_skim80.root'
p729
(I651928728
F1461729575
tp730
sS'/storage/a/wayand/cmss80x/Zll_DYJetsToLL_M-50_amcatnloFXFX-pythia8_25ns_v7_job_219_skim80.root'
p731
(I379110698
F1461691941
tp732
sS'/storage/a/wayand/cmss80x/Zll_DYJetsToLL_M-50_amcatnloFXFX-pythia8_25ns_v7_job_1277_skim80.root'
p733
(I655014987
F1461737267
tp734
sS'/storage/a/wayand/cmss80x/Zll_DYJetsToLL_M-50_amcatnloFXFX-pythia8_25ns_v7_job_822_skim80.root'
p735
(I669602756
F1461716885
tp736
sS'/storage/a/wayand/cmss80x/Zll_DYJetsToLL_M-50_amcatnloFXFX-pythia8_25ns_v7_job_407_skim80.root'
p737
(I522177482
F1461693750
tp738
sS'/storage/a/wayand/cmss80x/Zll_DYJetsToLL_M-50_amcatnloFXFX-pythia8_25ns_v7_job_1066_skim80.root'
p739
(I403235936
F1461724021
tp740
sS'/storage/a/wayand/cmss80x/Zll_DYJetsToLL_M-50_amcatnloFXFX-pythia8_25ns_v7_job_791_skim80.root'
p741
(I658736485
F1461719589
tp742
sS'/storage/a/wayand/cmss80x/Zll_DYJetsToLL_M-50_amcatnloFXFX-pythia8_25ns_v7_job_1190_skim80.root'
p743
(I419446326
F1461727964
tp744
sS'/storage/a/wayand/cmss80x/Zll_DYJetsToLL_M-50_amcatnloFXFX-pythia8_25ns_v7_job_588_skim80.root'
p745
(I655563359
F1461694316
tp746
sS'/storage/a/wayand/cmss80x/Zll_DYJetsToLL_M-50_amcatnloFXFX-pythia8_25ns_v7_job_682_skim80.root'
p747
(I503744684
F1461712106
tp748
sS'/storage/a/wayand/cmss80x/Zll_DYJetsToLL_M-50_amcatnloFXFX-pythia8_25ns_v7_job_366_skim80.root'
p749
(I632317034
F1461695626
tp750
sS'/storage/a/wayand/cmss80x/Zll_DYJetsToLL_M-50_amcatnloFXFX-pythia8_25ns_v7_job_1017_skim80.root'
p751
(I657739242
F1461730598
tp752
sS'/storage/a/wayand/cmss80x/Zll_DYJetsToLL_M-50_amcatnloFXFX-pythia8_25ns_v7_job_440_skim80.root'
p753
(I493375156
F1461691820
tp754
sS'/storage/a/wayand/cmss80x/Zll_DYJetsToLL_M-50_amcatnloFXFX-pythia8_25ns_v7_job_1294_skim80.root'
p755
(I451628311
F1461730247
tp756
sS'/storage/a/wayand/cmss80x/Zll_DYJetsToLL_M-50_amcatnloFXFX-pythia8_25ns_v7_job_496_skim80.root'
p757
(I662759231
F1461697625
tp758
sS'/storage/a/wayand/cmss80x/Zll_DYJetsToLL_M-50_amcatnloFXFX-pythia8_25ns_v7_job_1274_skim80.root'
p759
(I669083140
F1461735669
tp760
sS'/storage/a/wayand/cmss80x/Zll_DYJetsToLL_M-50_amcatnloFXFX-pythia8_25ns_v7_job_1290_skim80.root'
p761
(I374884894
F1461728187
tp762
sS'/storage/a/wayand/cmss80x/Zll_DYJetsToLL_M-50_amcatnloFXFX-pythia8_25ns_v7_job_558_skim80.root'
p763
(I641061016
F1461699147
tp764
sS'/storage/a/wayand/cmss80x/Zll_DYJetsToLL_M-50_amcatnloFXFX-pythia8_25ns_v7_job_873_skim80.root'
p765
(I355045013
F1461714249
tp766
sS'/storage/a/wayand/cmss80x/Zll_DYJetsToLL_M-50_amcatnloFXFX-pythia8_25ns_v7_job_1623_skim80.root'
p767
(I368458691
F1461733837
tp768
sS'/storage/a/wayand/cmss80x/Zll_DYJetsToLL_M-50_amcatnloFXFX-pythia8_25ns_v7_job_16_skim80.root'
p769
(I655096568
F1461695408
tp770
sS'/storage/a/wayand/cmss80x/Zll_DYJetsToLL_M-50_amcatnloFXFX-pythia8_25ns_v7_job_1329_skim80.root'
p771
(I581997725
F1461734390
tp772
sS'/storage/a/wayand/cmss80x/Zll_DYJetsToLL_M-50_amcatnloFXFX-pythia8_25ns_v7_job_1053_skim80.root'
p773
(I575948597
F1461729295
tp774
sS'/storage/a/wayand/cmss80x/Zll_DYJetsToLL_M-50_amcatnloFXFX-pythia8_25ns_v7_job_1047_skim80.root'
p775
(I660487431
F1461735726
tp776
sS'/storage/a/wayand/cmss80x/Zll_DYJetsToLL_M-50_amcatnloFXFX-pythia8_25ns_v7_job_466_skim80.root'
p777
(I667714910
F1461698318
tp778
sS'/storage/a/wayand/cmss80x/Zll_DYJetsToLL_M-50_amcatnloFXFX-pythia8_25ns_v7_job_403_skim80.root'
p779
(I655949255
F1461695512
tp780
sS'/storage/a/wayand/cmss80x/Zll_DYJetsToLL_M-50_amcatnloFXFX-pythia8_25ns_v7_job_1062_skim80.root'
p781
(I374747428
F1461724039
tp782
sS'/storage/a/wayand/cmss80x/Zll_DYJetsToLL_M-50_amcatnloFXFX-pythia8_25ns_v7_job_937_skim80.root'
p783
(I673228149
F1461727882
tp784
sS'/storage/a/wayand/cmss80x/Zll_DYJetsToLL_M-50_amcatnloFXFX-pythia8_25ns_v7_job_18_skim80.root'
p785
(I659302657
F1461694275
tp786
sS'/storage/a/wayand/cmss80x/Zll_DYJetsToLL_M-50_amcatnloFXFX-pythia8_25ns_v7_job_1593_skim80.root'
p787
(I450697228
F1461735948
tp788
sS'/storage/a/wayand/cmss80x/Zll_DYJetsToLL_M-50_amcatnloFXFX-pythia8_25ns_v7_job_742_skim80.root'
p789
(I484601530
F1461721249
tp790
sS'/storage/a/wayand/cmss80x/Zll_DYJetsToLL_M-50_amcatnloFXFX-pythia8_25ns_v7_job_928_skim80.root'
p791
(I668496198
F1461733882
tp792
sS'/storage/a/wayand/cmss80x/Zll_DYJetsToLL_M-50_amcatnloFXFX-pythia8_25ns_v7_job_1272_skim80.root'
p793
(I666042909
F1461733887
tp794
sS'/storage/a/wayand/cmss80x/Zll_DYJetsToLL_M-50_amcatnloFXFX-pythia8_25ns_v7_job_1570_skim80.root'
p795
(I520503043
F1461737310
tp796
sS'/storage/a/wayand/cmss80x/Zll_DYJetsToLL_M-50_amcatnloFXFX-pythia8_25ns_v7_job_870_skim80.root'
p797
(I653981196
F1461724365
tp798
sS'/storage/a/wayand/cmss80x/Zll_DYJetsToLL_M-50_amcatnloFXFX-pythia8_25ns_v7_job_628_skim80.root'
p799
(I660954316
F1461713099
tp800
sS'/storage/a/wayand/cmss80x/Zll_DYJetsToLL_M-50_amcatnloFXFX-pythia8_25ns_v7_job_447_skim80.root'
p801
(I98807062
F1461680547
tp802
sS'/storage/a/wayand/cmss80x/Zll_DYJetsToLL_M-50_amcatnloFXFX-pythia8_25ns_v7_job_1392_skim80.root'
p803
(I26054988
F1461720326
tp804
sS'/storage/a/wayand/cmss80x/Zll_DYJetsToLL_M-50_amcatnloFXFX-pythia8_25ns_v7_job_726_skim80.root'
p805
(I380824251
F1461709448
tp806
sS'/storage/a/wayand/cmss80x/Zll_DYJetsToLL_M-50_amcatnloFXFX-pythia8_25ns_v7_job_1212_skim80.root'
p807
(I430439808
F1461728019
tp808
sS'/storage/a/wayand/cmss80x/Zll_DYJetsToLL_M-50_amcatnloFXFX-pythia8_25ns_v7_job_1327_skim80.root'
p809
(I651135278
F1461734624
tp810
sS'/storage/a/wayand/cmss80x/Zll_DYJetsToLL_M-50_amcatnloFXFX-pythia8_25ns_v7_job_1312_skim80.root'
p811
(I661521716
F1461738330
tp812
sS'/storage/a/wayand/cmss80x/Zll_DYJetsToLL_M-50_amcatnloFXFX-pythia8_25ns_v7_job_1123_skim80.root'
p813
(I652227563
F1461734779
tp814
sS'/storage/a/wayand/cmss80x/Zll_DYJetsToLL_M-50_amcatnloFXFX-pythia8_25ns_v7_job_667_skim80.root'
p815
(I433660924
F1461709856
tp816
sS'/storage/a/wayand/cmss80x/Zll_DYJetsToLL_M-50_amcatnloFXFX-pythia8_25ns_v7_job_671_skim80.root'
p817
(I660030945
F1461716038
tp818
sS'/storage/a/wayand/cmss80x/Zll_DYJetsToLL_M-50_amcatnloFXFX-pythia8_25ns_v7_job_1437_skim80.root'
p819
(I360458561
F1461735274
tp820
sS'/storage/a/wayand/cmss80x/Zll_DYJetsToLL_M-50_amcatnloFXFX-pythia8_25ns_v7_job_107_skim80.root'
p821
(I426870595
F1461691961
tp822
sS'/storage/a/wayand/cmss80x/Zll_DYJetsToLL_M-50_amcatnloFXFX-pythia8_25ns_v7_job_1186_skim80.root'
p823
(I454933732
F1461726422
tp824
sS'/storage/a/wayand/cmss80x/Zll_DYJetsToLL_M-50_amcatnloFXFX-pythia8_25ns_v7_job_551_skim80.root'
p825
(I669703591
F1461695443
tp826
sS'/storage/a/wayand/cmss80x/Zll_DYJetsToLL_M-50_amcatnloFXFX-pythia8_25ns_v7_job_1299_skim80.root'
p827
(I458411077
F1461729199
tp828
sS'/storage/a/wayand/cmss80x/Zll_DYJetsToLL_M-50_amcatnloFXFX-pythia8_25ns_v7_job_383_skim80.root'
p829
(I672731779
F1461698890
tp830
sS'/storage/a/wayand/cmss80x/Zll_DYJetsToLL_M-50_amcatnloFXFX-pythia8_25ns_v7_job_1313_skim80.root'
p831
(I415313366
F1461729660
tp832
sS'/storage/a/wayand/cmss80x/Zll_DYJetsToLL_M-50_amcatnloFXFX-pythia8_25ns_v7_job_512_skim80.root'
p833
(I664730195
F1461698080
tp834
sS'/storage/a/wayand/cmss80x/Zll_DYJetsToLL_M-50_amcatnloFXFX-pythia8_25ns_v7_job_1282_skim80.root'
p835
(I670672840
F1461735485
tp836
sS'/storage/a/wayand/cmss80x/Zll_DYJetsToLL_M-50_amcatnloFXFX-pythia8_25ns_v7_job_135_skim80.root'
p837
(I624029559
F1461697352
tp838
sS'/storage/a/wayand/cmss80x/Zll_DYJetsToLL_M-50_amcatnloFXFX-pythia8_25ns_v7_job_340_skim80.root'
p839
(I668644122
F1461696885
tp840
sS'/storage/a/wayand/cmss80x/Zll_DYJetsToLL_M-50_amcatnloFXFX-pythia8_25ns_v7_job_1328_skim80.root'
p841
(I458297754
F1461732307
tp842
sS'/storage/a/wayand/cmss80x/Zll_DYJetsToLL_M-50_amcatnloFXFX-pythia8_25ns_v7_job_207_skim80.root'
p843
(I501160956
F1461693450
tp844
sS'/storage/a/wayand/cmss80x/Zll_DYJetsToLL_M-50_amcatnloFXFX-pythia8_25ns_v7_job_1429_skim80.root'
p845
(I470713519
F1461733298
tp846
sS'/storage/a/wayand/cmss80x/Zll_DYJetsToLL_M-50_amcatnloFXFX-pythia8_25ns_v7_job_524_skim80.root'
p847
(I648849611
F1461695551
tp848
sS'/storage/a/wayand/cmss80x/Zll_DYJetsToLL_M-50_amcatnloFXFX-pythia8_25ns_v7_job_71_skim80.root'
p849
(I501538577
F1461697899
tp850
sS'/storage/a/wayand/cmss80x/Zll_DYJetsToLL_M-50_amcatnloFXFX-pythia8_25ns_v7_job_706_skim80.root'
p851
(I509642660
F1461713484
tp852
sS'/storage/a/wayand/cmss80x/Zll_DYJetsToLL_M-50_amcatnloFXFX-pythia8_25ns_v7_job_1125_skim80.root'
p853
(I338315473
F1461723907
tp854
sS'/storage/a/wayand/cmss80x/Zll_DYJetsToLL_M-50_amcatnloFXFX-pythia8_25ns_v7_job_921_skim80.root'
p855
(I611822569
F1461724799
tp856
sS'/storage/a/wayand/cmss80x/Zll_DYJetsToLL_M-50_amcatnloFXFX-pythia8_25ns_v7_job_1341_skim80.root'
p857
(I343845513
F1461728268
tp858
sS'/storage/a/wayand/cmss80x/Zll_DYJetsToLL_M-50_amcatnloFXFX-pythia8_25ns_v7_job_717_skim80.root'
p859
(I652786079
F1461720865
tp860
sS'/storage/a/wayand/cmss80x/Zll_DYJetsToLL_M-50_amcatnloFXFX-pythia8_25ns_v7_job_1116_skim80.root'
p861
(I669292882
F1461734769
tp862
sS'/storage/a/wayand/cmss80x/Zll_DYJetsToLL_M-50_amcatnloFXFX-pythia8_25ns_v7_job_1265_skim80.root'
p863
(I654315330
F1461733389
tp864
sS'/storage/a/wayand/cmss80x/Zll_DYJetsToLL_M-50_amcatnloFXFX-pythia8_25ns_v7_job_1220_skim80.root'
p865
(I355658763
F1461725488
tp866
sS'/storage/a/wayand/cmss80x/Zll_DYJetsToLL_M-50_amcatnloFXFX-pythia8_25ns_v7_job_909_skim80.root'
p867
(I671619357
F1461720887
tp868
sS'/storage/a/wayand/cmss80x/Zll_DYJetsToLL_M-50_amcatnloFXFX-pythia8_25ns_v7_job_507_skim80.root'
p869
(I663358584
F1461697043
tp870
sS'/storage/a/wayand/cmss80x/Zll_DYJetsToLL_M-50_amcatnloFXFX-pythia8_25ns_v7_job_853_skim80.root'
p871
(I664155443
F1461720401
tp872
sS'/storage/a/wayand/cmss80x/Zll_DYJetsToLL_M-50_amcatnloFXFX-pythia8_25ns_v7_job_528_skim80.root'
p873
(I652568919
F1461696857
tp874
sS'/storage/a/wayand/cmss80x/Zll_DYJetsToLL_M-50_amcatnloFXFX-pythia8_25ns_v7_job_1010_skim80.root'
p875
(I653500504
F1461730358
tp876
sS'/storage/a/wayand/cmss80x/Zll_DYJetsToLL_M-50_amcatnloFXFX-pythia8_25ns_v7_job_361_skim80.root'
p877
(I350070875
F1461689712
tp878
sS'/storage/a/wayand/cmss80x/Zll_DYJetsToLL_M-50_amcatnloFXFX-pythia8_25ns_v7_job_771_skim80.root'
p879
(I390535452
F1461716111
tp880
sS'/storage/a/wayand/cmss80x/Zll_DYJetsToLL_M-50_amcatnloFXFX-pythia8_25ns_v7_job_317_skim80.root'
p881
(I406259875
F1461687855
tp882
sS'/storage/a/wayand/cmss80x/Zll_DYJetsToLL_M-50_amcatnloFXFX-pythia8_25ns_v7_job_147_skim80.root'
p883
(I442265839
F1461691324
tp884
sS'/storage/a/wayand/cmss80x/Zll_DYJetsToLL_M-50_amcatnloFXFX-pythia8_25ns_v7_job_1628_skim80.root'
p885
(I362559108
F1461732993
tp886
sS'/storage/a/wayand/cmss80x/Zll_DYJetsToLL_M-50_amcatnloFXFX-pythia8_25ns_v7_job_794_skim80.root'
p887
(I660489934
F1461721827
tp888
sS'/storage/a/wayand/cmss80x/Zll_DYJetsToLL_M-50_amcatnloFXFX-pythia8_25ns_v7_job_40_skim80.root'
p889
(I656995499
F1461696192
tp890
sS'/storage/a/wayand/cmss80x/Zll_DYJetsToLL_M-50_amcatnloFXFX-pythia8_25ns_v7_job_1538_skim80.root'
p891
(I427089274
F1461735089
tp892
sS'/storage/a/wayand/cmss80x/Zll_DYJetsToLL_M-50_amcatnloFXFX-pythia8_25ns_v7_job_1568_skim80.root'
p893
(I655495126
F1461738401
tp894
sS'/storage/a/wayand/cmss80x/Zll_DYJetsToLL_M-50_amcatnloFXFX-pythia8_25ns_v7_job_996_skim80.root'
p895
(I655398166
F1461731105
tp896
sS'/storage/a/wayand/cmss80x/Zll_DYJetsToLL_M-50_amcatnloFXFX-pythia8_25ns_v7_job_1157_skim80.root'
p897
(I653800356
F1461733638
tp898
sS'/storage/a/wayand/cmss80x/Zll_DYJetsToLL_M-50_amcatnloFXFX-pythia8_25ns_v7_job_1337_skim80.root'
p899
(I422832567
F1461733538
tp900
sS'/storage/a/wayand/cmss80x/Zll_DYJetsToLL_M-50_amcatnloFXFX-pythia8_25ns_v7_job_750_skim80.root'
p901
(I518047504
F1461724305
tp902
sS'/storage/a/wayand/cmss80x/Zll_DYJetsToLL_M-50_amcatnloFXFX-pythia8_25ns_v7_job_87_skim80.root'
p903
(I481006528
F1461692048
tp904
sS'/storage/a/wayand/cmss80x/Zll_DYJetsToLL_M-50_amcatnloFXFX-pythia8_25ns_v7_job_176_skim80.root'
p905
(I501888589
F1461693463
tp906
sS'/storage/a/wayand/cmss80x/Zll_DYJetsToLL_M-50_amcatnloFXFX-pythia8_25ns_v7_job_434_skim80.root'
p907
(I459732964
F1461690691
tp908
sS'/storage/a/wayand/cmss80x/Zll_DYJetsToLL_M-50_amcatnloFXFX-pythia8_25ns_v7_job_1552_skim80.root'
p909
(I357602646
F1461732340
tp910
sS'/storage/a/wayand/cmss80x/Zll_DYJetsToLL_M-50_amcatnloFXFX-pythia8_25ns_v7_job_321_skim80.root'
p911
(I669022818
F1461695721
tp912
sS'/storage/a/wayand/cmss80x/Zll_DYJetsToLL_M-50_amcatnloFXFX-pythia8_25ns_v7_job_739_skim80.root'
p913
(I352299330
F1461711671
tp914
sS'/storage/a/wayand/cmss80x/Zll_DYJetsToLL_M-50_amcatnloFXFX-pythia8_25ns_v7_job_222_skim80.root'
p915
(I352039561
F1461687624
tp916
sS'/storage/a/wayand/cmss80x/Zll_DYJetsToLL_M-50_amcatnloFXFX-pythia8_25ns_v7_job_614_skim80.root'
p917
(I675835210
F1461713899
tp918
sS'/storage/a/wayand/cmss80x/Zll_DYJetsToLL_M-50_amcatnloFXFX-pythia8_25ns_v7_job_878_skim80.root'
p919
(I439091062
F1461717127
tp920
sS'/storage/a/wayand/cmss80x/Zll_DYJetsToLL_M-50_amcatnloFXFX-pythia8_25ns_v7_job_864_skim80.root'
p921
(I411343440
F1461714355
tp922
sS'/storage/a/wayand/cmss80x/Zll_DYJetsToLL_M-50_amcatnloFXFX-pythia8_25ns_v7_job_210_skim80.root'
p923
(I498371046
F1461691562
tp924
sS'/storage/a/wayand/cmss80x/Zll_DYJetsToLL_M-50_amcatnloFXFX-pythia8_25ns_v7_job_703_skim80.root'
p925
(I567786764
F1461723400
tp926
sS'/storage/a/wayand/cmss80x/Zll_DYJetsToLL_M-50_amcatnloFXFX-pythia8_25ns_v7_job_1135_skim80.root'
p927
(I550004950
F1461730748
tp928
sS'/storage/a/wayand/cmss80x/Zll_DYJetsToLL_M-50_amcatnloFXFX-pythia8_25ns_v7_job_266_skim80.root'
p929
(I441306130
F1461690700
tp930
sS'/storage/a/wayand/cmss80x/Zll_DYJetsToLL_M-50_amcatnloFXFX-pythia8_25ns_v7_job_952_skim80.root'
p931
(I658140932
F1461729372
tp932
sS'/storage/a/wayand/cmss80x/Zll_DYJetsToLL_M-50_amcatnloFXFX-pythia8_25ns_v7_job_432_skim80.root'
p933
(I530916886
F1461693622
tp934
sS'/storage/a/wayand/cmss80x/Zll_DYJetsToLL_M-50_amcatnloFXFX-pythia8_25ns_v7_job_1624_skim80.root'
p935
(I338925702
F1461732616
tp936
sS'/storage/a/wayand/cmss80x/Zll_DYJetsToLL_M-50_amcatnloFXFX-pythia8_25ns_v7_job_36_skim80.root'
p937
(I654996614
F1461696714
tp938
sS'/storage/a/wayand/cmss80x/Zll_DYJetsToLL_M-50_amcatnloFXFX-pythia8_25ns_v7_job_1434_skim80.root'
p939
(I344565595
F1461736325
tp940
sS'/storage/a/wayand/cmss80x/Zll_DYJetsToLL_M-50_amcatnloFXFX-pythia8_25ns_v7_job_1319_skim80.root'
p941
(I660210055
F1461735586
tp942
sS'/storage/a/wayand/cmss80x/Zll_DYJetsToLL_M-50_amcatnloFXFX-pythia8_25ns_v7_job_451_skim80.root'
p943
(I671262019
F1461696612
tp944
sS'/storage/a/wayand/cmss80x/Zll_DYJetsToLL_M-50_amcatnloFXFX-pythia8_25ns_v7_job_1120_skim80.root'
p945
(I353465702
F1461723294
tp946
sS'/storage/a/wayand/cmss80x/Zll_DYJetsToLL_M-50_amcatnloFXFX-pythia8_25ns_v7_job_251_skim80.root'
p947
(I478519069
F1461691768
tp948
sS'/storage/a/wayand/cmss80x/Zll_DYJetsToLL_M-50_amcatnloFXFX-pythia8_25ns_v7_job_384_skim80.root'
p949
(I671902324
F1461693841
tp950
sS'/storage/a/wayand/cmss80x/Zll_DYJetsToLL_M-50_amcatnloFXFX-pythia8_25ns_v7_job_720_skim80.root'
p951
(I554595833
F1461716907
tp952
sS'/storage/a/wayand/cmss80x/Zll_DYJetsToLL_M-50_amcatnloFXFX-pythia8_25ns_v7_job_244_skim80.root'
p953
(I574795434
F1461692859
tp954
sS'/storage/a/wayand/cmss80x/Zll_DYJetsToLL_M-50_amcatnloFXFX-pythia8_25ns_v7_job_499_skim80.root'
p955
(I656181966
F1461696676
tp956
sS'/storage/a/wayand/cmss80x/Zll_DYJetsToLL_M-50_amcatnloFXFX-pythia8_25ns_v7_job_1380_skim80.root'
p957
(I407115653
F1461727967
tp958
sS'/storage/a/wayand/cmss80x/Zll_DYJetsToLL_M-50_amcatnloFXFX-pythia8_25ns_v7_job_1155_skim80.root'
p959
(I674054064
F1461735308
tp960
sS'/storage/a/wayand/cmss80x/Zll_DYJetsToLL_M-50_amcatnloFXFX-pythia8_25ns_v7_job_1473_skim80.root'
p961
(I487877260
F1461735268
tp962
sS'/storage/a/wayand/cmss80x/Zll_DYJetsToLL_M-50_amcatnloFXFX-pythia8_25ns_v7_job_164_skim80.root'
p963
(I382312212
F1461692511
tp964
sS'/storage/a/wayand/cmss80x/Zll_DYJetsToLL_M-50_amcatnloFXFX-pythia8_25ns_v7_job_1229_skim80.root'
p965
(I364324041
F1461727364
tp966
sS'/storage/a/wayand/cmss80x/Zll_DYJetsToLL_M-50_amcatnloFXFX-pythia8_25ns_v7_job_1082_skim80.root'
p967
(I380247423
F1461724520
tp968
sS'/storage/a/wayand/cmss80x/Zll_DYJetsToLL_M-50_amcatnloFXFX-pythia8_25ns_v7_job_977_skim80.root'
p969
(I629609778
F1461728653
tp970
sS'/storage/a/wayand/cmss80x/Zll_DYJetsToLL_M-50_amcatnloFXFX-pythia8_25ns_v7_job_337_skim80.root'
p971
(I655000573
F1461697032
tp972
sS'/storage/a/wayand/cmss80x/Zll_DYJetsToLL_M-50_amcatnloFXFX-pythia8_25ns_v7_job_1346_skim80.root'
p973
(I357220152
F1461728644
tp974
sS'/storage/a/wayand/cmss80x/Zll_DYJetsToLL_M-50_amcatnloFXFX-pythia8_25ns_v7_job_743_skim80.root'
p975
(I654429230
F1461721202
tp976
sS'/storage/a/wayand/cmss80x/Zll_DYJetsToLL_M-50_amcatnloFXFX-pythia8_25ns_v7_job_341_skim80.root'
p977
(I671760179
F1461698308
tp978
sS'/storage/a/wayand/cmss80x/Zll_DYJetsToLL_M-50_amcatnloFXFX-pythia8_25ns_v7_job_600_skim80.root'
p979
(I674652856
F1461698821
tp980
sS'/storage/a/wayand/cmss80x/Zll_DYJetsToLL_M-50_amcatnloFXFX-pythia8_25ns_v7_job_625_skim80.root'
p981
(I654145248
F1461715791
tp982
sS'/storage/a/wayand/cmss80x/Zll_DYJetsToLL_M-50_amcatnloFXFX-pythia8_25ns_v7_job_6_skim80.root'
p983
(I654037385
F1461732599
tp984
sS'/storage/a/wayand/cmss80x/Zll_DYJetsToLL_M-50_amcatnloFXFX-pythia8_25ns_v7_job_685_skim80.root'
p985
(I672667326
F1461717151
tp986
sS'/storage/a/wayand/cmss80x/Zll_DYJetsToLL_M-50_amcatnloFXFX-pythia8_25ns_v7_job_868_skim80.root'
p987
(I674977103
F1461720975
tp988
sS'/storage/a/wayand/cmss80x/Zll_DYJetsToLL_M-50_amcatnloFXFX-pythia8_25ns_v7_job_516_skim80.root'
p989
(I665272206
F1461698234
tp990
sS'/storage/a/wayand/cmss80x/Zll_DYJetsToLL_M-50_amcatnloFXFX-pythia8_25ns_v7_job_573_skim80.root'
p991
(I653093506
F1461697575
tp992
sS'/storage/a/wayand/cmss80x/Zll_DYJetsToLL_M-50_amcatnloFXFX-pythia8_25ns_v7_job_1332_skim80.root'
p993
(I377141967
F1461729063
tp994
sS'/storage/a/wayand/cmss80x/Zll_DYJetsToLL_M-50_amcatnloFXFX-pythia8_25ns_v7_job_856_skim80.root'
p995
(I661131707
F1461719809
tp996
sS'/storage/a/wayand/cmss80x/Zll_DYJetsToLL_M-50_amcatnloFXFX-pythia8_25ns_v7_job_1388_skim80.root'
p997
(I354443256
F1461730526
tp998
sS'/storage/a/wayand/cmss80x/Zll_DYJetsToLL_M-50_amcatnloFXFX-pythia8_25ns_v7_job_902_skim80.root'
p999
(I661404753
F1461722463
tp1000
sS'/storage/a/wayand/cmss80x/Zll_DYJetsToLL_M-50_amcatnloFXFX-pythia8_25ns_v7_job_672_skim80.root'
p1001
(I674588627
F1461714258
tp1002
sS'/storage/a/wayand/cmss80x/Zll_DYJetsToLL_M-50_amcatnloFXFX-pythia8_25ns_v7_job_958_skim80.root'
p1003
(I654828714
F1461728479
tp1004
sS'/storage/a/wayand/cmss80x/Zll_DYJetsToLL_M-50_amcatnloFXFX-pythia8_25ns_v7_job_984_skim80.root'
p1005
(I656072040
F1461730200
tp1006
sS'/storage/a/wayand/cmss80x/Zll_DYJetsToLL_M-50_amcatnloFXFX-pythia8_25ns_v7_job_78_skim80.root'
p1007
(I653831083
F1461698091
tp1008
sS'/storage/a/wayand/cmss80x/Zll_DYJetsToLL_M-50_amcatnloFXFX-pythia8_25ns_v7_job_1640_skim80.root'
p1009
(I379043310
F1461735026
tp1010
sS'/storage/a/wayand/cmss80x/Zll_DYJetsToLL_M-50_amcatnloFXFX-pythia8_25ns_v7_job_597_skim80.root'
p1011
(I655979289
F1461697373
tp1012
sS'/storage/a/wayand/cmss80x/Zll_DYJetsToLL_M-50_amcatnloFXFX-pythia8_25ns_v7_job_1072_skim80.root'
p1013
(I663267488
F1461730752
tp1014
sS'/storage/a/wayand/cmss80x/Zll_DYJetsToLL_M-50_amcatnloFXFX-pythia8_25ns_v7_job_343_skim80.root'
p1015
(I644784002
F1461697938
tp1016
sS'/storage/a/wayand/cmss80x/Zll_DYJetsToLL_M-50_amcatnloFXFX-pythia8_25ns_v7_job_80_skim80.root'
p1017
(I658886927
F1461696919
tp1018
sS'/storage/a/wayand/cmss80x/Zll_DYJetsToLL_M-50_amcatnloFXFX-pythia8_25ns_v7_job_247_skim80.root'
p1019
(I360363250
F1461688379
tp1020
sS'/storage/a/wayand/cmss80x/Zll_DYJetsToLL_M-50_amcatnloFXFX-pythia8_25ns_v7_job_287_skim80.root'
p1021
(I674498944
F1461696064
tp1022
sS'/storage/a/wayand/cmss80x/Zll_DYJetsToLL_M-50_amcatnloFXFX-pythia8_25ns_v7_job_1420_skim80.root'
p1023
(I533842689
F1461736078
tp1024
sS'/storage/a/wayand/cmss80x/Zll_DYJetsToLL_M-50_amcatnloFXFX-pythia8_25ns_v7_job_596_skim80.root'
p1025
(I662164088
F1461696546
tp1026
sS'/storage/a/wayand/cmss80x/Zll_DYJetsToLL_M-50_amcatnloFXFX-pythia8_25ns_v7_job_929_skim80.root'
p1027
(I656949320
F1461729465
tp1028
sS'/storage/a/wayand/cmss80x/Zll_DYJetsToLL_M-50_amcatnloFXFX-pythia8_25ns_v7_job_816_skim80.root'
p1029
(I663484554
F1461722573
tp1030
sS'/storage/a/wayand/cmss80x/Zll_DYJetsToLL_M-50_amcatnloFXFX-pythia8_25ns_v7_job_654_skim80.root'
p1031
(I667339245
F1461719370
tp1032
sS'/storage/a/wayand/cmss80x/Zll_DYJetsToLL_M-50_amcatnloFXFX-pythia8_25ns_v7_job_153_skim80.root'
p1033
(I568214270
F1461695285
tp1034
sS'/storage/a/wayand/cmss80x/Zll_DYJetsToLL_M-50_amcatnloFXFX-pythia8_25ns_v7_job_254_skim80.root'
p1035
(I672746716
F1461697319
tp1036
sS'/storage/a/wayand/cmss80x/Zll_DYJetsToLL_M-50_amcatnloFXFX-pythia8_25ns_v7_job_456_skim80.root'
p1037
(I667879452
F1461697301
tp1038
sS'/storage/a/wayand/cmss80x/Zll_DYJetsToLL_M-50_amcatnloFXFX-pythia8_25ns_v7_job_1095_skim80.root'
p1039
(I345502277
F1461724306
tp1040
sS'/storage/a/wayand/cmss80x/Zll_DYJetsToLL_M-50_amcatnloFXFX-pythia8_25ns_v7_job_179_skim80.root'
p1041
(I668250817
F1461700648
tp1042
sS'/storage/a/wayand/cmss80x/Zll_DYJetsToLL_M-50_amcatnloFXFX-pythia8_25ns_v7_job_1291_skim80.root'
p1043
(I598742085
F1461732725
tp1044
sS'/storage/a/wayand/cmss80x/Zll_DYJetsToLL_M-50_amcatnloFXFX-pythia8_25ns_v7_job_665_skim80.root'
p1045
(I656185951
F1461716546
tp1046
sS'/storage/a/wayand/cmss80x/Zll_DYJetsToLL_M-50_amcatnloFXFX-pythia8_25ns_v7_job_620_skim80.root'
p1047
(I670121263
F1461713921
tp1048
sS'/storage/a/wayand/cmss80x/Zll_DYJetsToLL_M-50_amcatnloFXFX-pythia8_25ns_v7_job_420_skim80.root'
p1049
(I485345284
F1461690244
tp1050
sS'/storage/a/wayand/cmss80x/Zll_DYJetsToLL_M-50_amcatnloFXFX-pythia8_25ns_v7_job_228_skim80.root'
p1051
(I649977932
F1461696878
tp1052
sS'/storage/a/wayand/cmss80x/Zll_DYJetsToLL_M-50_amcatnloFXFX-pythia8_25ns_v7_job_1606_skim80.root'
p1053
(I337485341
F1461733384
tp1054
sS'/storage/a/wayand/cmss80x/Zll_DYJetsToLL_M-50_amcatnloFXFX-pythia8_25ns_v7_job_602_skim80.root'
p1055
(I672001755
F1461697293
tp1056
sS'/storage/a/wayand/cmss80x/Zll_DYJetsToLL_M-50_amcatnloFXFX-pythia8_25ns_v7_job_183_skim80.root'
p1057
(I520510541
F1461700104
tp1058
sS'/storage/a/wayand/cmss80x/Zll_DYJetsToLL_M-50_amcatnloFXFX-pythia8_25ns_v7_job_1374_skim80.root'
p1059
(I427380769
F1461731168
tp1060
sS'/storage/a/wayand/cmss80x/Zll_DYJetsToLL_M-50_amcatnloFXFX-pythia8_25ns_v7_job_515_skim80.root'
p1061
(I661422240
F1461695864
tp1062
sS'/storage/a/wayand/cmss80x/Zll_DYJetsToLL_M-50_amcatnloFXFX-pythia8_25ns_v7_job_1314_skim80.root'
p1063
(I385350584
F1461729740
tp1064
sS'/storage/a/wayand/cmss80x/Zll_DYJetsToLL_M-50_amcatnloFXFX-pythia8_25ns_v7_job_505_skim80.root'
p1065
(I669334735
F1461697270
tp1066
sS'/storage/a/wayand/cmss80x/Zll_DYJetsToLL_M-50_amcatnloFXFX-pythia8_25ns_v7_job_693_skim80.root'
p1067
(I655210025
F1461719109
tp1068
sS'/storage/a/wayand/cmss80x/Zll_DYJetsToLL_M-50_amcatnloFXFX-pythia8_25ns_v7_job_127_skim80.root'
p1069
(I250675364
F1461684325
tp1070
sS'/storage/a/wayand/cmss80x/Zll_DYJetsToLL_M-50_amcatnloFXFX-pythia8_25ns_v7_job_612_skim80.root'
p1071
(I566311346
F1461722429
tp1072
sS'/storage/a/wayand/cmss80x/Zll_DYJetsToLL_M-50_amcatnloFXFX-pythia8_25ns_v7_job_1029_skim80.root'
p1073
(I672623213
F1461727967
tp1074
sS'/storage/a/wayand/cmss80x/Zll_DYJetsToLL_M-50_amcatnloFXFX-pythia8_25ns_v7_job_566_skim80.root'
p1075
(I672598036
F1461695571
tp1076
sS'/storage/a/wayand/cmss80x/Zll_DYJetsToLL_M-50_amcatnloFXFX-pythia8_25ns_v7_job_1305_skim80.root'
p1077
(I450242577
F1461730921
tp1078
sS'/storage/a/wayand/cmss80x/Zll_DYJetsToLL_M-50_amcatnloFXFX-pythia8_25ns_v7_job_75_skim80.root'
p1079
(I670977572
F1461707216
tp1080
sS'/storage/a/wayand/cmss80x/Zll_DYJetsToLL_M-50_amcatnloFXFX-pythia8_25ns_v7_job_1435_skim80.root'
p1081
(I376655099
F1461732385
tp1082
sS'/storage/a/wayand/cmss80x/Zll_DYJetsToLL_M-50_amcatnloFXFX-pythia8_25ns_v7_job_520_skim80.root'
p1083
(I657749619
F1461698389
tp1084
sS'/storage/a/wayand/cmss80x/Zll_DYJetsToLL_M-50_amcatnloFXFX-pythia8_25ns_v7_job_1498_skim80.root'
p1085
(I496937225
F1461735106
tp1086
sS'/storage/a/wayand/cmss80x/Zll_DYJetsToLL_M-50_amcatnloFXFX-pythia8_25ns_v7_job_472_skim80.root'
p1087
(I660333741
F1461698077
tp1088
sS'/storage/a/wayand/cmss80x/Zll_DYJetsToLL_M-50_amcatnloFXFX-pythia8_25ns_v7_job_554_skim80.root'
p1089
(I518034638
F1461693721
tp1090
sS'/storage/a/wayand/cmss80x/Zll_DYJetsToLL_M-50_amcatnloFXFX-pythia8_25ns_v7_job_226_skim80.root'
p1091
(I562461696
F1461692829
tp1092
sS'/storage/a/wayand/cmss80x/Zll_DYJetsToLL_M-50_amcatnloFXFX-pythia8_25ns_v7_job_908_skim80.root'
p1093
(I370239080
F1461716878
tp1094
sS'/storage/a/wayand/cmss80x/Zll_DYJetsToLL_M-50_amcatnloFXFX-pythia8_25ns_v7_job_1389_skim80.root'
p1095
(I105200017
F1461722012
tp1096
sS'/storage/a/wayand/cmss80x/Zll_DYJetsToLL_M-50_amcatnloFXFX-pythia8_25ns_v7_job_662_skim80.root'
p1097
(I634834842
F1461724005
tp1098
sS'/storage/a/wayand/cmss80x/Zll_DYJetsToLL_M-50_amcatnloFXFX-pythia8_25ns_v7_job_592_skim80.root'
p1099
(I673355387
F1461696362
tp1100
sS'/storage/a/wayand/cmss80x/Zll_DYJetsToLL_M-50_amcatnloFXFX-pythia8_25ns_v7_job_1200_skim80.root'
p1101
(I483494451
F1461727953
tp1102
sS'/storage/a/wayand/cmss80x/Zll_DYJetsToLL_M-50_amcatnloFXFX-pythia8_25ns_v7_job_777_skim80.root'
p1103
(I656965286
F1461719348
tp1104
sS'/storage/a/wayand/cmss80x/Zll_DYJetsToLL_M-50_amcatnloFXFX-pythia8_25ns_v7_job_72_skim80.root'
p1105
(I651770191
F1461697799
tp1106
sS'/storage/a/wayand/cmss80x/Zll_DYJetsToLL_M-50_amcatnloFXFX-pythia8_25ns_v7_job_1067_skim80.root'
p1107
(I368593207
F1461724437
tp1108
sS'/storage/a/wayand/cmss80x/Zll_DYJetsToLL_M-50_amcatnloFXFX-pythia8_25ns_v7_job_406_skim80.root'
p1109
(I468362483
F1461691364
tp1110
sS'/storage/a/wayand/cmss80x/Zll_DYJetsToLL_M-50_amcatnloFXFX-pythia8_25ns_v7_job_1032_skim80.root'
p1111
(I649480351
F1461732869
tp1112
sS'/storage/a/wayand/cmss80x/Zll_DYJetsToLL_M-50_amcatnloFXFX-pythia8_25ns_v7_job_211_skim80.root'
p1113
(I348055556
F1461687071
tp1114
sS'/storage/a/wayand/cmss80x/Zll_DYJetsToLL_M-50_amcatnloFXFX-pythia8_25ns_v7_job_736_skim80.root'
p1115
(I663068129
F1461730560
tp1116
sS'/storage/a/wayand/cmss80x/Zll_DYJetsToLL_M-50_amcatnloFXFX-pythia8_25ns_v7_job_258_skim80.root'
p1117
(I661914584
F1461693475
tp1118
sS'/storage/a/wayand/cmss80x/Zll_DYJetsToLL_M-50_amcatnloFXFX-pythia8_25ns_v7_job_930_skim80.root'
p1119
(I657167693
F1461727050
tp1120
sS'/storage/a/wayand/cmss80x/Zll_DYJetsToLL_M-50_amcatnloFXFX-pythia8_25ns_v7_job_1541_skim80.root'
p1121
(I375844728
F1461731785
tp1122
sS'/storage/a/wayand/cmss80x/Zll_DYJetsToLL_M-50_amcatnloFXFX-pythia8_25ns_v7_job_1245_skim80.root'
p1123
(I508435356
F1461730512
tp1124
sS'/storage/a/wayand/cmss80x/Zll_DYJetsToLL_M-50_amcatnloFXFX-pythia8_25ns_v7_job_858_skim80.root'
p1125
(I9682674
F1461704793
tp1126
sS'/storage/a/wayand/cmss80x/Zll_DYJetsToLL_M-50_amcatnloFXFX-pythia8_25ns_v7_job_195_skim80.root'
p1127
(I666411659
F1461703437
tp1128
sS'/storage/a/wayand/cmss80x/Zll_DYJetsToLL_M-50_amcatnloFXFX-pythia8_25ns_v7_job_1227_skim80.root'
p1129
(I74951681
F1461718427
tp1130
sS'/storage/a/wayand/cmss80x/Zll_DYJetsToLL_M-50_amcatnloFXFX-pythia8_25ns_v7_job_1187_skim80.root'
p1131
(I653174766
F1461732547
tp1132
sS'/storage/a/wayand/cmss80x/Zll_DYJetsToLL_M-50_amcatnloFXFX-pythia8_25ns_v7_job_1399_skim80.root'
p1133
(I76965906
F1461722368
tp1134
sS'/storage/a/wayand/cmss80x/Zll_DYJetsToLL_M-50_amcatnloFXFX-pythia8_25ns_v7_job_1595_skim80.root'
p1135
(I374409379
F1461733819
tp1136
sS'/storage/a/wayand/cmss80x/Zll_DYJetsToLL_M-50_amcatnloFXFX-pythia8_25ns_v7_job_362_skim80.root'
p1137
(I659933414
F1461696910
tp1138
sS'/storage/a/wayand/cmss80x/Zll_DYJetsToLL_M-50_amcatnloFXFX-pythia8_25ns_v7_job_1013_skim80.root'
p1139
(I666400735
F1461729204
tp1140
sS'/storage/a/wayand/cmss80x/Zll_DYJetsToLL_M-50_amcatnloFXFX-pythia8_25ns_v7_job_416_skim80.root'
p1141
(I359466864
F1461693755
tp1142
sS'/storage/a/wayand/cmss80x/Zll_DYJetsToLL_M-50_amcatnloFXFX-pythia8_25ns_v7_job_105_skim80.root'
p1143
(I652655049
F1461697721
tp1144
sS'/storage/a/wayand/cmss80x/Zll_DYJetsToLL_M-50_amcatnloFXFX-pythia8_25ns_v7_job_48_skim80.root'
p1145
(I673646795
F1461711199
tp1146
sS'/storage/a/wayand/cmss80x/Zll_DYJetsToLL_M-50_amcatnloFXFX-pythia8_25ns_v7_job_1505_skim80.root'
p1147
(I344664224
F1461731862
tp1148
sS'/storage/a/wayand/cmss80x/Zll_DYJetsToLL_M-50_amcatnloFXFX-pythia8_25ns_v7_job_1558_skim80.root'
p1149
(I357802684
F1461733040
tp1150
sS'/storage/a/wayand/cmss80x/Zll_DYJetsToLL_M-50_amcatnloFXFX-pythia8_25ns_v7_job_1521_skim80.root'
p1151
(I505733076
F1461737969
tp1152
sS'/storage/a/wayand/cmss80x/Zll_DYJetsToLL_M-50_amcatnloFXFX-pythia8_25ns_v7_job_25_skim80.root'
p1153
(I659888340
F1461704745
tp1154
sS'/storage/a/wayand/cmss80x/Zll_DYJetsToLL_M-50_amcatnloFXFX-pythia8_25ns_v7_job_119_skim80.root'
p1155
(I650112344
F1461695266
tp1156
sS'/storage/a/wayand/cmss80x/Zll_DYJetsToLL_M-50_amcatnloFXFX-pythia8_25ns_v7_job_261_skim80.root'
p1157
(I465707279
F1461688724
tp1158
sS'/storage/a/wayand/cmss80x/Zll_DYJetsToLL_M-50_amcatnloFXFX-pythia8_25ns_v7_job_1415_skim80.root'
p1159
(I662340964
F1461737812
tp1160
sS'/storage/a/wayand/cmss80x/Zll_DYJetsToLL_M-50_amcatnloFXFX-pythia8_25ns_v7_job_876_skim80.root'
p1161
(I654999326
F1461726123
tp1162
sS'/storage/a/wayand/cmss80x/Zll_DYJetsToLL_M-50_amcatnloFXFX-pythia8_25ns_v7_job_1574_skim80.root'
p1163
(I201725283
F1461727408
tp1164
sS'/storage/a/wayand/cmss80x/Zll_DYJetsToLL_M-50_amcatnloFXFX-pythia8_25ns_v7_job_1600_skim80.root'
p1165
(I344048649
F1461734724
tp1166
sS'/storage/a/wayand/cmss80x/Zll_DYJetsToLL_M-50_amcatnloFXFX-pythia8_25ns_v7_job_774_skim80.root'
p1167
(I402903527
F1461717531
tp1168
sS'/storage/a/wayand/cmss80x/Zll_DYJetsToLL_M-50_amcatnloFXFX-pythia8_25ns_v7_job_1090_skim80.root'
p1169
(I650929145
F1461732595
tp1170
sS'/storage/a/wayand/cmss80x/Zll_DYJetsToLL_M-50_amcatnloFXFX-pythia8_25ns_v7_job_1306_skim80.root'
p1171
(I447214601
F1461730053
tp1172
sS'/storage/a/wayand/cmss80x/Zll_DYJetsToLL_M-50_amcatnloFXFX-pythia8_25ns_v7_job_1526_skim80.root'
p1173
(I124743454
F1461725124
tp1174
sS'/storage/a/wayand/cmss80x/Zll_DYJetsToLL_M-50_amcatnloFXFX-pythia8_25ns_v7_job_1191_skim80.root'
p1175
(I553410931
F1461730504
tp1176
sS'/storage/a/wayand/cmss80x/Zll_DYJetsToLL_M-50_amcatnloFXFX-pythia8_25ns_v7_job_764_skim80.root'
p1177
(I354297408
F1461715652
tp1178
sS'/storage/a/wayand/cmss80x/Zll_DYJetsToLL_M-50_amcatnloFXFX-pythia8_25ns_v7_job_565_skim80.root'
p1179
(I668196370
F1461694283
tp1180
sS'/storage/a/wayand/cmss80x/Zll_DYJetsToLL_M-50_amcatnloFXFX-pythia8_25ns_v7_job_173_skim80.root'
p1181
(I407849868
F1461690410
tp1182
sS'/storage/a/wayand/cmss80x/Zll_DYJetsToLL_M-50_amcatnloFXFX-pythia8_25ns_v7_job_550_skim80.root'
p1183
(I337457720
F1461687334
tp1184
sS'/storage/a/wayand/cmss80x/Zll_DYJetsToLL_M-50_amcatnloFXFX-pythia8_25ns_v7_job_631_skim80.root'
p1185
(I666503427
F1461722144
tp1186
sS'/storage/a/wayand/cmss80x/Zll_DYJetsToLL_M-50_amcatnloFXFX-pythia8_25ns_v7_job_1138_skim80.root'
p1187
(I671196751
F1461731367
tp1188
sS'/storage/a/wayand/cmss80x/Zll_DYJetsToLL_M-50_amcatnloFXFX-pythia8_25ns_v7_job_732_skim80.root'
p1189
(I652005069
F1461720172
tp1190
sS'/storage/a/wayand/cmss80x/Zll_DYJetsToLL_M-50_amcatnloFXFX-pythia8_25ns_v7_job_1536_skim80.root'
p1191
(I354032735
F1461731800
tp1192
sS'/storage/a/wayand/cmss80x/Zll_DYJetsToLL_M-50_amcatnloFXFX-pythia8_25ns_v7_job_186_skim80.root'
p1193
(I357832296
F1461687950
tp1194
sS'/storage/a/wayand/cmss80x/Zll_DYJetsToLL_M-50_amcatnloFXFX-pythia8_25ns_v7_job_1069_skim80.root'
p1195
(I469098944
F1461726957
tp1196
sS'/storage/a/wayand/cmss80x/Zll_DYJetsToLL_M-50_amcatnloFXFX-pythia8_25ns_v7_job_849_skim80.root'
p1197
(I652628972
F1461723605
tp1198
sS'/storage/a/wayand/cmss80x/Zll_DYJetsToLL_M-50_amcatnloFXFX-pythia8_25ns_v7_job_1554_skim80.root'
p1199
(I329200131
F1461731327
tp1200
sS'/storage/a/wayand/cmss80x/Zll_DYJetsToLL_M-50_amcatnloFXFX-pythia8_25ns_v7_job_1162_skim80.root'
p1201
(I593762268
F1461732316
tp1202
sS'/storage/a/wayand/cmss80x/Zll_DYJetsToLL_M-50_amcatnloFXFX-pythia8_25ns_v7_job_722_skim80.root'
p1203
(I413181971
F1461717145
tp1204
sS'/storage/a/wayand/cmss80x/Zll_DYJetsToLL_M-50_amcatnloFXFX-pythia8_25ns_v7_job_315_skim80.root'
p1205
(I403965906
F1461688758
tp1206
sS'/storage/a/wayand/cmss80x/Zll_DYJetsToLL_M-50_amcatnloFXFX-pythia8_25ns_v7_job_1070_skim80.root'
p1207
(I665289919
F1461731118
tp1208
sS'/storage/a/wayand/cmss80x/Zll_DYJetsToLL_M-50_amcatnloFXFX-pythia8_25ns_v7_job_1365_skim80.root'
p1209
(I597137905
F1461734045
tp1210
sS'/storage/a/wayand/cmss80x/Zll_DYJetsToLL_M-50_amcatnloFXFX-pythia8_25ns_v7_job_1221_skim80.root'
p1211
(I352263990
F1461726604
tp1212
sS'/storage/a/wayand/cmss80x/Zll_DYJetsToLL_M-50_amcatnloFXFX-pythia8_25ns_v7_job_467_skim80.root'
p1213
(I654026041
F1461695841
tp1214
sS'/storage/a/wayand/cmss80x/Zll_DYJetsToLL_M-50_amcatnloFXFX-pythia8_25ns_v7_job_1046_skim80.root'
p1215
(I655316865
F1461729567
tp1216
sS'/storage/a/wayand/cmss80x/Zll_DYJetsToLL_M-50_amcatnloFXFX-pythia8_25ns_v7_job_31_skim80.root'
p1217
(I669622941
F1461698316
tp1218
sS'/storage/a/wayand/cmss80x/Zll_DYJetsToLL_M-50_amcatnloFXFX-pythia8_25ns_v7_job_82_skim80.root'
p1219
(I650084262
F1461713850
tp1220
sS'/storage/a/wayand/cmss80x/Zll_DYJetsToLL_M-50_amcatnloFXFX-pythia8_25ns_v7_job_1007_skim80.root'
p1221
(I664670859
F1461731052
tp1222
sS'/storage/a/wayand/cmss80x/Zll_DYJetsToLL_M-50_amcatnloFXFX-pythia8_25ns_v7_job_426_skim80.root'
p1223
(I443514795
F1461691413
tp1224
sS'/storage/a/wayand/cmss80x/Zll_DYJetsToLL_M-50_amcatnloFXFX-pythia8_25ns_v7_job_1605_skim80.root'
p1225
(I457695782
F1461736209
tp1226
sS'/storage/a/wayand/cmss80x/Zll_DYJetsToLL_M-50_amcatnloFXFX-pythia8_25ns_v7_job_1214_skim80.root'
p1227
(I588187576
F1461733495
tp1228
sS'/storage/a/wayand/cmss80x/Zll_DYJetsToLL_M-50_amcatnloFXFX-pythia8_25ns_v7_job_1366_skim80.root'
p1229
(I657765392
F1461738590
tp1230
sS'/storage/a/wayand/cmss80x/Zll_DYJetsToLL_M-50_amcatnloFXFX-pythia8_25ns_v7_job_1035_skim80.root'
p1231
(I654217988
F1461728766
tp1232
sS'/storage/a/wayand/cmss80x/Zll_DYJetsToLL_M-50_amcatnloFXFX-pythia8_25ns_v7_job_754_skim80.root'
p1233
(I501420544
F1461716297
tp1234
sS'/storage/a/wayand/cmss80x/Zll_DYJetsToLL_M-50_amcatnloFXFX-pythia8_25ns_v7_job_35_skim80.root'
p1235
(I653110446
F1461698427
tp1236
sS'/storage/a/wayand/cmss80x/Zll_DYJetsToLL_M-50_amcatnloFXFX-pythia8_25ns_v7_job_1172_skim80.root'
p1237
(I463485236
F1461727921
tp1238
sS'/storage/a/wayand/cmss80x/Zll_DYJetsToLL_M-50_amcatnloFXFX-pythia8_25ns_v7_job_1224_skim80.root'
p1239
(I459758456
F1461728494
tp1240
sS'/storage/a/wayand/cmss80x/Zll_DYJetsToLL_M-50_amcatnloFXFX-pythia8_25ns_v7_job_46_skim80.root'
p1241
(I652429668
F1461700423
tp1242
sS'/storage/a/wayand/cmss80x/Zll_DYJetsToLL_M-50_amcatnloFXFX-pythia8_25ns_v7_job_969_skim80.root'
p1243
(I664880091
F1461729912
tp1244
sS'/storage/a/wayand/cmss80x/Zll_DYJetsToLL_M-50_amcatnloFXFX-pythia8_25ns_v7_job_230_skim80.root'
p1245
(I571822118
F1461701016
tp1246
sS'/storage/a/wayand/cmss80x/Zll_DYJetsToLL_M-50_amcatnloFXFX-pythia8_25ns_v7_job_1101_skim80.root'
p1247
(I371765118
F1461723846
tp1248
sS'/storage/a/wayand/cmss80x/Zll_DYJetsToLL_M-50_amcatnloFXFX-pythia8_25ns_v7_job_494_skim80.root'
p1249
(I374644979
F1461689432
tp1250
sS'/storage/a/wayand/cmss80x/Zll_DYJetsToLL_M-50_amcatnloFXFX-pythia8_25ns_v7_job_235_skim80.root'
p1251
(I673686277
F1461707303
tp1252
sS'/storage/a/wayand/cmss80x/Zll_DYJetsToLL_M-50_amcatnloFXFX-pythia8_25ns_v7_job_1092_skim80.root'
p1253
(I572690230
F1461730997
tp1254
sS'/storage/a/wayand/cmss80x/Zll_DYJetsToLL_M-50_amcatnloFXFX-pythia8_25ns_v7_job_1615_skim80.root'
p1255
(I352934966
F1461733283
tp1256
sS'/storage/a/wayand/cmss80x/Zll_DYJetsToLL_M-50_amcatnloFXFX-pythia8_25ns_v7_job_314_skim80.root'
p1257
(I427218034
F1461688699
tp1258
sS'/storage/a/wayand/cmss80x/Zll_DYJetsToLL_M-50_amcatnloFXFX-pythia8_25ns_v7_job_723_skim80.root'
p1259
(I666066342
F1461719629
tp1260
sS'/storage/a/wayand/cmss80x/Zll_DYJetsToLL_M-50_amcatnloFXFX-pythia8_25ns_v7_job_1502_skim80.root'
p1261
(I347423227
F1461732247
tp1262
sS'/storage/a/wayand/cmss80x/Zll_DYJetsToLL_M-50_amcatnloFXFX-pythia8_25ns_v7_job_675_skim80.root'
p1263
(I566239295
F1461713984
tp1264
sS'/storage/a/wayand/cmss80x/Zll_DYJetsToLL_M-50_amcatnloFXFX-pythia8_25ns_v7_job_1189_skim80.root'
p1265
(I462959543
F1461729543
tp1266
sS'/storage/a/wayand/cmss80x/Zll_DYJetsToLL_M-50_amcatnloFXFX-pythia8_25ns_v7_job_394_skim80.root'
p1267
(I661062517
F1461696800
tp1268
sS'/storage/a/wayand/cmss80x/Zll_DYJetsToLL_M-50_amcatnloFXFX-pythia8_25ns_v7_job_243_skim80.root'
p1269
(I553436732
F1461692721
tp1270
sS'/storage/a/wayand/cmss80x/Zll_DYJetsToLL_M-50_amcatnloFXFX-pythia8_25ns_v7_job_136_skim80.root'
p1271
(I427208982
F1461695656
tp1272
sS'/storage/a/wayand/cmss80x/Zll_DYJetsToLL_M-50_amcatnloFXFX-pythia8_25ns_v7_job_1175_skim80.root'
p1273
(I675558662
F1461735726
tp1274
sS'/storage/a/wayand/cmss80x/Zll_DYJetsToLL_M-50_amcatnloFXFX-pythia8_25ns_v7_job_1133_skim80.root'
p1275
(I660044937
F1461734352
tp1276
sS'/storage/a/wayand/cmss80x/Zll_DYJetsToLL_M-50_amcatnloFXFX-pythia8_25ns_v7_job_43_skim80.root'
p1277
(I650838050
F1461694015
tp1278
sS'/storage/a/wayand/cmss80x/Zll_DYJetsToLL_M-50_amcatnloFXFX-pythia8_25ns_v7_job_1002_skim80.root'
p1279
(I652021756
F1461733017
tp1280
sS'/storage/a/wayand/cmss80x/Zll_DYJetsToLL_M-50_amcatnloFXFX-pythia8_25ns_v7_job_1089_skim80.root'
p1281
(I428494114
F1461725245
tp1282
sS'/storage/a/wayand/cmss80x/Zll_DYJetsToLL_M-50_amcatnloFXFX-pythia8_25ns_v7_job_1679_skim80.root'
p1283
(I425508717
F1461734059
tp1284
sS'/storage/a/wayand/cmss80x/Zll_DYJetsToLL_M-50_amcatnloFXFX-pythia8_25ns_v7_job_1169_skim80.root'
p1285
(I419827642
F1461725740
tp1286
sS'/storage/a/wayand/cmss80x/Zll_DYJetsToLL_M-50_amcatnloFXFX-pythia8_25ns_v7_job_537_skim80.root'
p1287
(I657139136
F1461696114
tp1288
sS'/storage/a/wayand/cmss80x/Zll_DYJetsToLL_M-50_amcatnloFXFX-pythia8_25ns_v7_job_1331_skim80.root'
p1289
(I407891539
F1461730103
tp1290
sS'/storage/a/wayand/cmss80x/Zll_DYJetsToLL_M-50_amcatnloFXFX-pythia8_25ns_v7_job_1428_skim80.root'
p1291
(I390974379
F1461733302
tp1292
sS'/storage/a/wayand/cmss80x/Zll_DYJetsToLL_M-50_amcatnloFXFX-pythia8_25ns_v7_job_1427_skim80.root'
p1293
(I649698840
F1461738370
tp1294
sS'/storage/a/wayand/cmss80x/Zll_DYJetsToLL_M-50_amcatnloFXFX-pythia8_25ns_v7_job_1391_skim80.root'
p1295
(I47896804
F1461725704
tp1296
sS'/storage/a/wayand/cmss80x/Zll_DYJetsToLL_M-50_amcatnloFXFX-pythia8_25ns_v7_job_1262_skim80.root'
p1297
(I379822963
F1461725971
tp1298
sS'/storage/a/wayand/cmss80x/Zll_DYJetsToLL_M-50_amcatnloFXFX-pythia8_25ns_v7_job_1562_skim80.root'
p1299
(I353145047
F1461733006
tp1300
sS'/storage/a/wayand/cmss80x/Zll_DYJetsToLL_M-50_amcatnloFXFX-pythia8_25ns_v7_job_855_skim80.root'
p1301
(I347034679
F1461713028
tp1302
sS'/storage/a/wayand/cmss80x/Zll_DYJetsToLL_M-50_amcatnloFXFX-pythia8_25ns_v7_job_939_skim80.root'
p1303
(I653327387
F1461728295
tp1304
sS'/storage/a/wayand/cmss80x/Zll_DYJetsToLL_M-50_amcatnloFXFX-pythia8_25ns_v7_job_174_skim80.root'
p1305
(I376187896
F1461688671
tp1306
sS'/storage/a/wayand/cmss80x/Zll_DYJetsToLL_M-50_amcatnloFXFX-pythia8_25ns_v7_job_741_skim80.root'
p1307
(I519790675
F1461724501
tp1308
sS'/storage/a/wayand/cmss80x/Zll_DYJetsToLL_M-50_amcatnloFXFX-pythia8_25ns_v7_job_906_skim80.root'
p1309
(I653024159
F1461726145
tp1310
sS'/storage/a/wayand/cmss80x/Zll_DYJetsToLL_M-50_amcatnloFXFX-pythia8_25ns_v7_job_610_skim80.root'
p1311
(I659803132
F1461716462
tp1312
sS'/storage/a/wayand/cmss80x/Zll_DYJetsToLL_M-50_amcatnloFXFX-pythia8_25ns_v7_job_1585_skim80.root'
p1313
(I536576049
F1461736370
tp1314
sS'/storage/a/wayand/cmss80x/Zll_DYJetsToLL_M-50_amcatnloFXFX-pythia8_25ns_v7_job_1213_skim80.root'
p1315
(I411611138
F1461727988
tp1316
sS'/storage/a/wayand/cmss80x/Zll_DYJetsToLL_M-50_amcatnloFXFX-pythia8_25ns_v7_job_719_skim80.root'
p1317
(I574422959
F1461713341
tp1318
sS'/storage/a/wayand/cmss80x/Zll_DYJetsToLL_M-50_amcatnloFXFX-pythia8_25ns_v7_job_1304_skim80.root'
p1319
(I462644868
F1461730557
tp1320
sS'/storage/a/wayand/cmss80x/Zll_DYJetsToLL_M-50_amcatnloFXFX-pythia8_25ns_v7_job_567_skim80.root'
p1321
(I673747837
F1461696210
tp1322
sS'/storage/a/wayand/cmss80x/Zll_DYJetsToLL_M-50_amcatnloFXFX-pythia8_25ns_v7_job_704_skim80.root'
p1323
(I480253628
F1461713912
tp1324
sS'/storage/a/wayand/cmss80x/Zll_DYJetsToLL_M-50_amcatnloFXFX-pythia8_25ns_v7_job_218_skim80.root'
p1325
(I568580678
F1461695701
tp1326
sS'/storage/a/wayand/cmss80x/Zll_DYJetsToLL_M-50_amcatnloFXFX-pythia8_25ns_v7_job_255_skim80.root'
p1327
(I520807715
F1461722816
tp1328
sS'/storage/a/wayand/cmss80x/Zll_DYJetsToLL_M-50_amcatnloFXFX-pythia8_25ns_v7_job_142_skim80.root'
p1329
(I593795118
F1461695613
tp1330
sS'/storage/a/wayand/cmss80x/Zll_DYJetsToLL_M-50_amcatnloFXFX-pythia8_25ns_v7_job_905_skim80.root'
p1331
(I668198266
F1461725677
tp1332
sS'/storage/a/wayand/cmss80x/Zll_DYJetsToLL_M-50_amcatnloFXFX-pythia8_25ns_v7_job_1207_skim80.root'
p1333
(I365937559
F1461726738
tp1334
sS'/storage/a/wayand/cmss80x/Zll_DYJetsToLL_M-50_amcatnloFXFX-pythia8_25ns_v7_job_1091_skim80.root'
p1335
(I447768908
F1461727916
tp1336
sS'/storage/a/wayand/cmss80x/Zll_DYJetsToLL_M-50_amcatnloFXFX-pythia8_25ns_v7_job_115_skim80.root'
p1337
(I659183073
F1461704116
tp1338
sS'/storage/a/wayand/cmss80x/Zll_DYJetsToLL_M-50_amcatnloFXFX-pythia8_25ns_v7_job_579_skim80.root'
p1339
(I652625106
F1461697670
tp1340
sS'/storage/a/wayand/cmss80x/Zll_DYJetsToLL_M-50_amcatnloFXFX-pythia8_25ns_v7_job_1338_skim80.root'
p1341
(I461711774
F1461732979
tp1342
sS'/storage/a/wayand/cmss80x/Zll_DYJetsToLL_M-50_amcatnloFXFX-pythia8_25ns_v7_job_1540_skim80.root'
p1343
(I428960178
F1461733905
tp1344
sS'/storage/a/wayand/cmss80x/Zll_DYJetsToLL_M-50_amcatnloFXFX-pythia8_25ns_v7_job_1219_skim80.root'
p1345
(I561146397
F1461729977
tp1346
sS'/storage/a/wayand/cmss80x/Zll_DYJetsToLL_M-50_amcatnloFXFX-pythia8_25ns_v7_job_711_skim80.root'
p1347
(I660635015
F1461732080
tp1348
sS'/storage/a/wayand/cmss80x/Zll_DYJetsToLL_M-50_amcatnloFXFX-pythia8_25ns_v7_job_1110_skim80.root'
p1349
(I396703774
F1461726092
tp1350
sS'/storage/a/wayand/cmss80x/Zll_DYJetsToLL_M-50_amcatnloFXFX-pythia8_25ns_v7_job_1547_skim80.root'
p1351
(I656384173
F1461737886
tp1352
sS'/storage/a/wayand/cmss80x/Zll_DYJetsToLL_M-50_amcatnloFXFX-pythia8_25ns_v7_job_415_skim80.root'
p1353
(I386070523
F1461721307
tp1354
sS'/storage/a/wayand/cmss80x/Zll_DYJetsToLL_M-50_amcatnloFXFX-pythia8_25ns_v7_job_949_skim80.root'
p1355
(I671119073
F1461728027
tp1356
sS'/storage/a/wayand/cmss80x/Zll_DYJetsToLL_M-50_amcatnloFXFX-pythia8_25ns_v7_job_835_skim80.root'
p1357
(I667006399
F1461722780
tp1358
sS'/storage/a/wayand/cmss80x/Zll_DYJetsToLL_M-50_amcatnloFXFX-pythia8_25ns_v7_job_1146_skim80.root'
p1359
(I671018810
F1461738210
tp1360
sS'/storage/a/wayand/cmss80x/Zll_DYJetsToLL_M-50_amcatnloFXFX-pythia8_25ns_v7_job_277_skim80.root'
p1361
(I668310371
F1461696027
tp1362
sS'/storage/a/wayand/cmss80x/Zll_DYJetsToLL_M-50_amcatnloFXFX-pythia8_25ns_v7_job_144_skim80.root'
p1363
(I486916259
F1461692773
tp1364
sS'/storage/a/wayand/cmss80x/Zll_DYJetsToLL_M-50_amcatnloFXFX-pythia8_25ns_v7_job_253_skim80.root'
p1365
(I653697052
F1461696973
tp1366
sS'/storage/a/wayand/cmss80x/Zll_DYJetsToLL_M-50_amcatnloFXFX-pythia8_25ns_v7_job_757_skim80.root'
p1367
(I654484158
F1461726272
tp1368
sS'/storage/a/wayand/cmss80x/Zll_DYJetsToLL_M-50_amcatnloFXFX-pythia8_25ns_v7_job_927_skim80.root'
p1369
(I600608930
F1461726592
tp1370
sS'/storage/a/wayand/cmss80x/Zll_DYJetsToLL_M-50_amcatnloFXFX-pythia8_25ns_v7_job_172_skim80.root'
p1371
(I376800710
F1461689127
tp1372
sS'/storage/a/wayand/cmss80x/Zll_DYJetsToLL_M-50_amcatnloFXFX-pythia8_25ns_v7_job_97_skim80.root'
p1373
(I656870836
F1461695752
tp1374
sS'/storage/a/wayand/cmss80x/Zll_DYJetsToLL_M-50_amcatnloFXFX-pythia8_25ns_v7_job_355_skim80.root'
p1375
(I654037380
F1461696227
tp1376
sS'/storage/a/wayand/cmss80x/Zll_DYJetsToLL_M-50_amcatnloFXFX-pythia8_25ns_v7_job_882_skim80.root'
p1377
(I512611186
F1461718107
tp1378
sS'/storage/a/wayand/cmss80x/Zll_DYJetsToLL_M-50_amcatnloFXFX-pythia8_25ns_v7_job_1222_skim80.root'
p1379
(I399619977
F1461727533
tp1380
sS'/storage/a/wayand/cmss80x/Zll_DYJetsToLL_M-50_amcatnloFXFX-pythia8_25ns_v7_job_49_skim80.root'
p1381
(I673406142
F1461698450
tp1382
sS'/storage/a/wayand/cmss80x/Zll_DYJetsToLL_M-50_amcatnloFXFX-pythia8_25ns_v7_job_1260_skim80.root'
p1383
(I668871394
F1461735728
tp1384
sS'/storage/a/wayand/cmss80x/Zll_DYJetsToLL_M-50_amcatnloFXFX-pythia8_25ns_v7_job_686_skim80.root'
p1385
(I670991228
F1461718171
tp1386
sS'/storage/a/wayand/cmss80x/Zll_DYJetsToLL_M-50_amcatnloFXFX-pythia8_25ns_v7_job_622_skim80.root'
p1387
(I651302558
F1461712771
tp1388
sS'/storage/a/wayand/cmss80x/Zll_DYJetsToLL_M-50_amcatnloFXFX-pythia8_25ns_v7_job_1508_skim80.root'
p1389
(I352180621
F1461731722
tp1390
sS'/storage/a/wayand/cmss80x/Zll_DYJetsToLL_M-50_amcatnloFXFX-pythia8_25ns_v7_job_1596_skim80.root'
p1391
(I489152007
F1461735930
tp1392
sS'/storage/a/wayand/cmss80x/Zll_DYJetsToLL_M-50_amcatnloFXFX-pythia8_25ns_v7_job_852_skim80.root'
p1393
(I434014577
F1461716621
tp1394
sS'/storage/a/wayand/cmss80x/Zll_DYJetsToLL_M-50_amcatnloFXFX-pythia8_25ns_v7_job_1258_skim80.root'
p1395
(I673163309
F1461734356
tp1396
sS'/storage/a/wayand/cmss80x/Zll_DYJetsToLL_M-50_amcatnloFXFX-pythia8_25ns_v7_job_84_skim80.root'
p1397
(I669292646
F1461698370
tp1398
sS'/storage/a/wayand/cmss80x/Zll_DYJetsToLL_M-50_amcatnloFXFX-pythia8_25ns_v7_job_229_skim80.root'
p1399
(I670854817
F1461696469
tp1400
sS'/storage/a/wayand/cmss80x/Zll_DYJetsToLL_M-50_amcatnloFXFX-pythia8_25ns_v7_job_840_skim80.root'
p1401
(I401838946
F1461712763
tp1402
sS'/storage/a/wayand/cmss80x/Zll_DYJetsToLL_M-50_amcatnloFXFX-pythia8_25ns_v7_job_1371_skim80.root'
p1403
(I403169396
F1461729622
tp1404
sS'/storage/a/wayand/cmss80x/Zll_DYJetsToLL_M-50_amcatnloFXFX-pythia8_25ns_v7_job_427_skim80.root'
p1405
(I360625997
F1461689042
tp1406
sS'/storage/a/wayand/cmss80x/Zll_DYJetsToLL_M-50_amcatnloFXFX-pythia8_25ns_v7_job_836_skim80.root'
p1407
(I665126429
F1461722895
tp1408
sS'/storage/a/wayand/cmss80x/Zll_DYJetsToLL_M-50_amcatnloFXFX-pythia8_25ns_v7_job_924_skim80.root'
p1409
(I649643180
F1461726809
tp1410
sS'/storage/a/wayand/cmss80x/Zll_DYJetsToLL_M-50_amcatnloFXFX-pythia8_25ns_v7_job_663_skim80.root'
p1411
(I609532551
F1461723617
tp1412
sS'/storage/a/wayand/cmss80x/Zll_DYJetsToLL_M-50_amcatnloFXFX-pythia8_25ns_v7_job_357_skim80.root'
p1413
(I567513817
F1461694413
tp1414
sS'/storage/a/wayand/cmss80x/Zll_DYJetsToLL_M-50_amcatnloFXFX-pythia8_25ns_v7_job_57_skim80.root'
p1415
(I368230489
F1461688242
tp1416
sS'/storage/a/wayand/cmss80x/Zll_DYJetsToLL_M-50_amcatnloFXFX-pythia8_25ns_v7_job_1193_skim80.root'
p1417
(I655588682
F1461730949
tp1418
sS'/storage/a/wayand/cmss80x/Zll_DYJetsToLL_M-50_amcatnloFXFX-pythia8_25ns_v7_job_792_skim80.root'
p1419
(I649565358
F1461720152
tp1420
sS'/storage/a/wayand/cmss80x/Zll_DYJetsToLL_M-50_amcatnloFXFX-pythia8_25ns_v7_job_1641_skim80.root'
p1421
(I385252240
F1461736201
tp1422
sS'/storage/a/wayand/cmss80x/Zll_DYJetsToLL_M-50_amcatnloFXFX-pythia8_25ns_v7_job_1280_skim80.root'
p1423
(I415402561
F1461729076
tp1424
sS'/storage/a/wayand/cmss80x/Zll_DYJetsToLL_M-50_amcatnloFXFX-pythia8_25ns_v7_job_249_skim80.root'
p1425
(I667007562
F1461698104
tp1426
sS'/storage/a/wayand/cmss80x/Zll_DYJetsToLL_M-50_amcatnloFXFX-pythia8_25ns_v7_job_445_skim80.root'
p1427
(I444768665
F1461689594
tp1428
sS'/storage/a/wayand/cmss80x/Zll_DYJetsToLL_M-50_amcatnloFXFX-pythia8_25ns_v7_job_152_skim80.root'
p1429
(I335922182
F1461690023
tp1430
sS'/storage/a/wayand/cmss80x/Zll_DYJetsToLL_M-50_amcatnloFXFX-pythia8_25ns_v7_job_1394_skim80.root'
p1431
(I22771507
F1461720263
tp1432
sS'/storage/a/wayand/cmss80x/Zll_DYJetsToLL_M-50_amcatnloFXFX-pythia8_25ns_v7_job_813_skim80.root'
p1433
(I662447552
F1461720990
tp1434
sS'/storage/a/wayand/cmss80x/Zll_DYJetsToLL_M-50_amcatnloFXFX-pythia8_25ns_v7_job_1397_skim80.root'
p1435
(I77011516
F1461722052
tp1436
sS'/storage/a/wayand/cmss80x/Zll_DYJetsToLL_M-50_amcatnloFXFX-pythia8_25ns_v7_job_1099_skim80.root'
p1437
(I358389835
F1461724735
tp1438
sS'/storage/a/wayand/cmss80x/Zll_DYJetsToLL_M-50_amcatnloFXFX-pythia8_25ns_v7_job_936_skim80.root'
p1439
(I657742895
F1461729398
tp1440
sS'/storage/a/wayand/cmss80x/Zll_DYJetsToLL_M-50_amcatnloFXFX-pythia8_25ns_v7_job_19_skim80.root'
p1441
(I665297420
F1461694072
tp1442
sS'/storage/a/wayand/cmss80x/Zll_DYJetsToLL_M-50_amcatnloFXFX-pythia8_25ns_v7_job_288_skim80.root'
p1443
(I660183233
F1461694523
tp1444
sS'/storage/a/wayand/cmss80x/Zll_DYJetsToLL_M-50_amcatnloFXFX-pythia8_25ns_v7_job_196_skim80.root'
p1445
(I509665216
F1461692598
tp1446
sS'/storage/a/wayand/cmss80x/Zll_DYJetsToLL_M-50_amcatnloFXFX-pythia8_25ns_v7_job_1081_skim80.root'
p1447
(I368093767
F1461723902
tp1448
sS'/storage/a/wayand/cmss80x/Zll_DYJetsToLL_M-50_amcatnloFXFX-pythia8_25ns_v7_job_1261_skim80.root'
p1449
(I371555610
F1461728125
tp1450
sS'/storage/a/wayand/cmss80x/Zll_DYJetsToLL_M-50_amcatnloFXFX-pythia8_25ns_v7_job_346_skim80.root'
p1451
(I670932273
F1461697069
tp1452
sS'/storage/a/wayand/cmss80x/Zll_DYJetsToLL_M-50_amcatnloFXFX-pythia8_25ns_v7_job_1077_skim80.root'
p1453
(I667333791
F1461729746
tp1454
sS'/storage/a/wayand/cmss80x/Zll_DYJetsToLL_M-50_amcatnloFXFX-pythia8_25ns_v7_job_1184_skim80.root'
p1455
(I669338060
F1461733677
tp1456
sS'/storage/a/wayand/cmss80x/Zll_DYJetsToLL_M-50_amcatnloFXFX-pythia8_25ns_v7_job_740_skim80.root'
p1457
(I441859803
F1461721246
tp1458
sS'/storage/a/wayand/cmss80x/Zll_DYJetsToLL_M-50_amcatnloFXFX-pythia8_25ns_v7_job_642_skim80.root'
p1459
(I651798058
F1461714166
tp1460
sS'/storage/a/wayand/cmss80x/Zll_DYJetsToLL_M-50_amcatnloFXFX-pythia8_25ns_v7_job_738_skim80.root'
p1461
(I428754790
F1461718387
tp1462
sS'/storage/a/wayand/cmss80x/Zll_DYJetsToLL_M-50_amcatnloFXFX-pythia8_25ns_v7_job_1216_skim80.root'
p1463
(I505246551
F1461730522
tp1464
sS'/storage/a/wayand/cmss80x/Zll_DYJetsToLL_M-50_amcatnloFXFX-pythia8_25ns_v7_job_947_skim80.root'
p1465
(I360124242
F1461720728
tp1466
sS'/storage/a/wayand/cmss80x/Zll_DYJetsToLL_M-50_amcatnloFXFX-pythia8_25ns_v7_job_914_skim80.root'
p1467
(I666967305
F1461725844
tp1468
sS'/storage/a/wayand/cmss80x/Zll_DYJetsToLL_M-50_amcatnloFXFX-pythia8_25ns_v7_job_481_skim80.root'
p1469
(I656595081
F1461697076
tp1470
sS'/storage/a/wayand/cmss80x/Zll_DYJetsToLL_M-50_amcatnloFXFX-pythia8_25ns_v7_job_530_skim80.root'
p1471
(I341834204
F1461688518
tp1472
sS'/storage/a/wayand/cmss80x/Zll_DYJetsToLL_M-50_amcatnloFXFX-pythia8_25ns_v7_job_1034_skim80.root'
p1473
(I660925655
F1461730097
tp1474
sS'/storage/a/wayand/cmss80x/Zll_DYJetsToLL_M-50_amcatnloFXFX-pythia8_25ns_v7_job_305_skim80.root'
p1475
(I656504973
F1461696068
tp1476
sS'/storage/a/wayand/cmss80x/Zll_DYJetsToLL_M-50_amcatnloFXFX-pythia8_25ns_v7_job_1030_skim80.root'
p1477
(I653782633
F1461733178
tp1478
sS'/storage/a/wayand/cmss80x/Zll_DYJetsToLL_M-50_amcatnloFXFX-pythia8_25ns_v7_job_692_skim80.root'
p1479
(I653768863
F1461716034
tp1480
sS'/storage/a/wayand/cmss80x/Zll_DYJetsToLL_M-50_amcatnloFXFX-pythia8_25ns_v7_job_900_skim80.root'
p1481
(I657831879
F1461723161
tp1482
sS'/storage/a/wayand/cmss80x/Zll_DYJetsToLL_M-50_amcatnloFXFX-pythia8_25ns_v7_job_21_skim80.root'
p1483
(I666406851
F1461696631
tp1484
sS'/storage/a/wayand/cmss80x/Zll_DYJetsToLL_M-50_amcatnloFXFX-pythia8_25ns_v7_job_259_skim80.root'
p1485
(I482014866
F1461700722
tp1486
sS'/storage/a/wayand/cmss80x/Zll_DYJetsToLL_M-50_amcatnloFXFX-pythia8_25ns_v7_job_889_skim80.root'
p1487
(I673300284
F1461726826
tp1488
sS'/storage/a/wayand/cmss80x/Zll_DYJetsToLL_M-50_amcatnloFXFX-pythia8_25ns_v7_job_1539_skim80.root'
p1489
(I429498262
F1461733521
tp1490
sS'/storage/a/wayand/cmss80x/Zll_DYJetsToLL_M-50_amcatnloFXFX-pythia8_25ns_v7_job_1642_skim80.root'
p1491
(I627792772
F1461738588
tp1492
sS'/storage/a/wayand/cmss80x/Zll_DYJetsToLL_M-50_amcatnloFXFX-pythia8_25ns_v7_job_189_skim80.root'
p1493
(I369581803
F1461687096
tp1494
sS'/storage/a/wayand/cmss80x/Zll_DYJetsToLL_M-50_amcatnloFXFX-pythia8_25ns_v7_job_1451_skim80.root'
p1495
(I500162126
F1461734976
tp1496
sS'/storage/a/wayand/cmss80x/Zll_DYJetsToLL_M-50_amcatnloFXFX-pythia8_25ns_v7_job_1045_skim80.root'
p1497
(I668161026
F1461732940
tp1498
sS'/storage/a/wayand/cmss80x/Zll_DYJetsToLL_M-50_amcatnloFXFX-pythia8_25ns_v7_job_584_skim80.root'
p1499
(I358836307
F1461687744
tp1500
sS'/storage/a/wayand/cmss80x/Zll_DYJetsToLL_M-50_amcatnloFXFX-pythia8_25ns_v7_job_624_skim80.root'
p1501
(I651168970
F1461717022
tp1502
sS'/storage/a/wayand/cmss80x/Zll_DYJetsToLL_M-50_amcatnloFXFX-pythia8_25ns_v7_job_1333_skim80.root'
p1503
(I376360363
F1461729907
tp1504
sS'/storage/a/wayand/cmss80x/Zll_DYJetsToLL_M-50_amcatnloFXFX-pythia8_25ns_v7_job_572_skim80.root'
p1505
(I659121530
F1461697917
tp1506
sS'/storage/a/wayand/cmss80x/Zll_DYJetsToLL_M-50_amcatnloFXFX-pythia8_25ns_v7_job_128_skim80.root'
p1507
(I19098854
F1461677516
tp1508
sS'/storage/a/wayand/cmss80x/Zll_DYJetsToLL_M-50_amcatnloFXFX-pythia8_25ns_v7_job_1506_skim80.root'
p1509
(I408462678
F1461731678
tp1510
sS'/storage/a/wayand/cmss80x/Zll_DYJetsToLL_M-50_amcatnloFXFX-pythia8_25ns_v7_job_1322_skim80.root'
p1511
(I554643911
F1461735246
tp1512
sS'/storage/a/wayand/cmss80x/Zll_DYJetsToLL_M-50_amcatnloFXFX-pythia8_25ns_v7_job_965_skim80.root'
p1513
(I670264113
F1461734040
tp1514
sS'/storage/a/wayand/cmss80x/Zll_DYJetsToLL_M-50_amcatnloFXFX-pythia8_25ns_v7_job_146_skim80.root'
p1515
(I450772281
F1461697077
tp1516
sS'/storage/a/wayand/cmss80x/Zll_DYJetsToLL_M-50_amcatnloFXFX-pythia8_25ns_v7_job_1433_skim80.root'
p1517
(I378974879
F1461731077
tp1518
sS'/storage/a/wayand/cmss80x/Zll_DYJetsToLL_M-50_amcatnloFXFX-pythia8_25ns_v7_job_276_skim80.root'
p1519
(I671156022
F1461697151
tp1520
sS'/storage/a/wayand/cmss80x/Zll_DYJetsToLL_M-50_amcatnloFXFX-pythia8_25ns_v7_job_1147_skim80.root'
p1521
(I662040581
F1461733400
tp1522
sS'/storage/a/wayand/cmss80x/Zll_DYJetsToLL_M-50_amcatnloFXFX-pythia8_25ns_v7_job_1557_skim80.root'
p1523
(I354863067
F1461731631
tp1524
sS'/storage/a/wayand/cmss80x/Zll_DYJetsToLL_M-50_amcatnloFXFX-pythia8_25ns_v7_job_709_skim80.root'
p1525
(I673131986
F1461718096
tp1526
sS'/storage/a/wayand/cmss80x/Zll_DYJetsToLL_M-50_amcatnloFXFX-pythia8_25ns_v7_job_329_skim80.root'
p1527
(I672063349
F1461727940
tp1528
sS'/storage/a/wayand/cmss80x/Zll_DYJetsToLL_M-50_amcatnloFXFX-pythia8_25ns_v7_job_308_skim80.root'
p1529
(I374875604
F1461688406
tp1530
sS'/storage/a/wayand/cmss80x/Zll_DYJetsToLL_M-50_amcatnloFXFX-pythia8_25ns_v7_job_1039_skim80.root'
p1531
(I662175551
F1461730670
tp1532
sS'/storage/a/wayand/cmss80x/Zll_DYJetsToLL_M-50_amcatnloFXFX-pythia8_25ns_v7_job_660_skim80.root'
p1533
(I661347908
F1461714682
tp1534
sS'/storage/a/wayand/cmss80x/Zll_DYJetsToLL_M-50_amcatnloFXFX-pythia8_25ns_v7_job_1268_skim80.root'
p1535
(I658121389
F1461735798
tp1536
sS'/storage/a/wayand/cmss80x/Zll_DYJetsToLL_M-50_amcatnloFXFX-pythia8_25ns_v7_job_1173_skim80.root'
p1537
(I400033950
F1461727541
tp1538
sS'/storage/a/wayand/cmss80x/Zll_DYJetsToLL_M-50_amcatnloFXFX-pythia8_25ns_v7_job_375_skim80.root'
p1539
(I472935285
F1461691973
tp1540
sS'/storage/a/wayand/cmss80x/Zll_DYJetsToLL_M-50_amcatnloFXFX-pythia8_25ns_v7_job_1022_skim80.root'
p1541
(I654210278
F1461733785
tp1542
sS'/storage/a/wayand/cmss80x/Zll_DYJetsToLL_M-50_amcatnloFXFX-pythia8_25ns_v7_job_886_skim80.root'
p1543
(I672747980
F1461722970
tp1544
sS'/storage/a/wayand/cmss80x/Zll_DYJetsToLL_M-50_amcatnloFXFX-pythia8_25ns_v7_job_1148_skim80.root'
p1545
(I656578588
F1461733869
tp1546
sS'/storage/a/wayand/cmss80x/Zll_DYJetsToLL_M-50_amcatnloFXFX-pythia8_25ns_v7_job_279_skim80.root'
p1547
(I469764863
F1461691376
tp1548
sS'/storage/a/wayand/cmss80x/Zll_DYJetsToLL_M-50_amcatnloFXFX-pythia8_25ns_v7_job_1249_skim80.root'
p1549
(I658335106
F1461735334
tp1550
sS'/storage/a/wayand/cmss80x/Zll_DYJetsToLL_M-50_amcatnloFXFX-pythia8_25ns_v7_job_784_skim80.root'
p1551
(I454901966
F1461713741
tp1552
sS'/storage/a/wayand/cmss80x/Zll_DYJetsToLL_M-50_amcatnloFXFX-pythia8_25ns_v7_job_1639_skim80.root'
p1553
(I349994882
F1461734539
tp1554
sS'/storage/a/wayand/cmss80x/Zll_DYJetsToLL_M-50_amcatnloFXFX-pythia8_25ns_v7_job_799_skim80.root'
p1555
(I669741262
F1461717865
tp1556
sS'/storage/a/wayand/cmss80x/Zll_DYJetsToLL_M-50_amcatnloFXFX-pythia8_25ns_v7_job_286_skim80.root'
p1557
(I468981866
F1461690257
tp1558
sS'/storage/a/wayand/cmss80x/Zll_DYJetsToLL_M-50_amcatnloFXFX-pythia8_25ns_v7_job_560_skim80.root'
p1559
(I659024322
F1461697562
tp1560
sS'/storage/a/wayand/cmss80x/Zll_DYJetsToLL_M-50_amcatnloFXFX-pythia8_25ns_v7_job_1303_skim80.root'
p1561
(I582490130
F1461733715
tp1562
sS'/storage/a/wayand/cmss80x/Zll_DYJetsToLL_M-50_amcatnloFXFX-pythia8_25ns_v7_job_1198_skim80.root'
p1563
(I340114082
F1461722888
tp1564
sS'/storage/a/wayand/cmss80x/Zll_DYJetsToLL_M-50_amcatnloFXFX-pythia8_25ns_v7_job_877_skim80.root'
p1565
(I353166241
F1461714857
tp1566
sS'/storage/a/wayand/cmss80x/Zll_DYJetsToLL_M-50_amcatnloFXFX-pythia8_25ns_v7_job_477_skim80.root'
p1567
(I671457508
F1461698046
tp1568
sS'/storage/a/wayand/cmss80x/Zll_DYJetsToLL_M-50_amcatnloFXFX-pythia8_25ns_v7_job_1076_skim80.root'
p1569
(I476208423
F1461727784
tp1570
sS'/storage/a/wayand/cmss80x/Zll_DYJetsToLL_M-50_amcatnloFXFX-pythia8_25ns_v7_job_431_skim80.root'
p1571
(I481113208
F1461692041
tp1572
sS'/storage/a/wayand/cmss80x/Zll_DYJetsToLL_M-50_amcatnloFXFX-pythia8_25ns_v7_job_155_skim80.root'
p1573
(I656452477
F1461706141
tp1574
sS'/storage/a/wayand/cmss80x/Zll_DYJetsToLL_M-50_amcatnloFXFX-pythia8_25ns_v7_job_1105_skim80.root'
p1575
(I663767087
F1461733949
tp1576
sS'/storage/a/wayand/cmss80x/Zll_DYJetsToLL_M-50_amcatnloFXFX-pythia8_25ns_v7_job_1080_skim80.root'
p1577
(I346217351
F1461722723
tp1578
sS'/storage/a/wayand/cmss80x/Zll_DYJetsToLL_M-50_amcatnloFXFX-pythia8_25ns_v7_job_1515_skim80.root'
p1579
(I470219961
F1461734962
tp1580
sS'/storage/a/wayand/cmss80x/Zll_DYJetsToLL_M-50_amcatnloFXFX-pythia8_25ns_v7_job_800_skim80.root'
p1581
(I650351616
F1461720744
tp1582
sS'/storage/a/wayand/cmss80x/Zll_DYJetsToLL_M-50_amcatnloFXFX-pythia8_25ns_v7_job_1233_skim80.root'
p1583
(I658120384
F1461731936
tp1584
sS'/storage/a/wayand/cmss80x/Zll_DYJetsToLL_M-50_amcatnloFXFX-pythia8_25ns_v7_job_59_skim80.root'
p1585
(I656225555
F1461696841
tp1586
sS'/storage/a/wayand/cmss80x/Zll_DYJetsToLL_M-50_amcatnloFXFX-pythia8_25ns_v7_job_11_skim80.root'
p1587
(I663790996
F1461715505
tp1588
sS'/storage/a/wayand/cmss80x/Zll_DYJetsToLL_M-50_amcatnloFXFX-pythia8_25ns_v7_job_527_skim80.root'
p1589
(I665678230
F1461697818
tp1590
sS'/storage/a/wayand/cmss80x/Zll_DYJetsToLL_M-50_amcatnloFXFX-pythia8_25ns_v7_job_788_skim80.root'
p1591
(I661017656
F1461720571
tp1592
sS'/storage/a/wayand/cmss80x/Zll_DYJetsToLL_M-50_amcatnloFXFX-pythia8_25ns_v7_job_1040_skim80.root'
p1593
(I358694376
F1461722156
tp1594
sS'/storage/a/wayand/cmss80x/Zll_DYJetsToLL_M-50_amcatnloFXFX-pythia8_25ns_v7_job_633_skim80.root'
p1595
(I660721871
F1461715552
tp1596
sS'/storage/a/wayand/cmss80x/Zll_DYJetsToLL_M-50_amcatnloFXFX-pythia8_25ns_v7_job_111_skim80.root'
p1597
(I648594939
F1461695804
tp1598
sS'/storage/a/wayand/cmss80x/Zll_DYJetsToLL_M-50_amcatnloFXFX-pythia8_25ns_v7_job_74_skim80.root'
p1599
(I357493115
F1461692414
tp1600
sS'/storage/a/wayand/cmss80x/Zll_DYJetsToLL_M-50_amcatnloFXFX-pythia8_25ns_v7_job_435_skim80.root'
p1601
(I654978143
F1461696891
tp1602
sS'/storage/a/wayand/cmss80x/Zll_DYJetsToLL_M-50_amcatnloFXFX-pythia8_25ns_v7_job_324_skim80.root'
p1603
(I382690631
F1461688345
tp1604
sS'/storage/a/wayand/cmss80x/Zll_DYJetsToLL_M-50_amcatnloFXFX-pythia8_25ns_v7_job_47_skim80.root'
p1605
(I668037435
F1461699480
tp1606
sS'/storage/a/wayand/cmss80x/Zll_DYJetsToLL_M-50_amcatnloFXFX-pythia8_25ns_v7_job_609_skim80.root'
p1607
(I656838562
F1461714633
tp1608
sS'/storage/a/wayand/cmss80x/Zll_DYJetsToLL_M-50_amcatnloFXFX-pythia8_25ns_v7_job_299_skim80.root'
p1609
(I669928916
F1461697273
tp1610
sS'/storage/a/wayand/cmss80x/Zll_DYJetsToLL_M-50_amcatnloFXFX-pythia8_25ns_v7_job_1251_skim80.root'
p1611
(I660244939
F1461733889
tp1612
sS'/storage/a/wayand/cmss80x/Zll_DYJetsToLL_M-50_amcatnloFXFX-pythia8_25ns_v7_job_1362_skim80.root'
p1613
(I653887094
F1461735137
tp1614
sS'/storage/a/wayand/cmss80x/Zll_DYJetsToLL_M-50_amcatnloFXFX-pythia8_25ns_v7_job_358_skim80.root'
p1615
(I638591478
F1461699446
tp1616
sS'/storage/a/wayand/cmss80x/Zll_DYJetsToLL_M-50_amcatnloFXFX-pythia8_25ns_v7_job_216_skim80.root'
p1617
(I667178964
F1461705321
tp1618
sS'/storage/a/wayand/cmss80x/Zll_DYJetsToLL_M-50_amcatnloFXFX-pythia8_25ns_v7_job_533_skim80.root'
p1619
(I660460382
F1461696728
tp1620
sS'/storage/a/wayand/cmss80x/Zll_DYJetsToLL_M-50_amcatnloFXFX-pythia8_25ns_v7_job_673_skim80.root'
p1621
(I478060607
F1461709437
tp1622
sS'/storage/a/wayand/cmss80x/Zll_DYJetsToLL_M-50_amcatnloFXFX-pythia8_25ns_v7_job_702_skim80.root'
p1623
(I656883158
F1461717054
tp1624
sS'/storage/a/wayand/cmss80x/Zll_DYJetsToLL_M-50_amcatnloFXFX-pythia8_25ns_v7_job_150_skim80.root'
p1625
(I323915785
F1461693714
tp1626
sS'/storage/a/wayand/cmss80x/Zll_DYJetsToLL_M-50_amcatnloFXFX-pythia8_25ns_v7_job_1252_skim80.root'
p1627
(I661755743
F1461735202
tp1628
sS'/storage/a/wayand/cmss80x/Zll_DYJetsToLL_M-50_amcatnloFXFX-pythia8_25ns_v7_job_847_skim80.root'
p1629
(I670621205
F1461723967
tp1630
sS'/storage/a/wayand/cmss80x/Zll_DYJetsToLL_M-50_amcatnloFXFX-pythia8_25ns_v7_job_837_skim80.root'
p1631
(I660393281
F1461735516
tp1632
sS'/storage/a/wayand/cmss80x/Zll_DYJetsToLL_M-50_amcatnloFXFX-pythia8_25ns_v7_job_1015_skim80.root'
p1633
(I663426948
F1461732957
tp1634
sS'/storage/a/wayand/cmss80x/Zll_DYJetsToLL_M-50_amcatnloFXFX-pythia8_25ns_v7_job_1311_skim80.root'
p1635
(I669142423
F1461735856
tp1636
sS'/storage/a/wayand/cmss80x/Zll_DYJetsToLL_M-50_amcatnloFXFX-pythia8_25ns_v7_job_459_skim80.root'
p1637
(I652465741
F1461696831
tp1638
sS'/storage/a/wayand/cmss80x/Zll_DYJetsToLL_M-50_amcatnloFXFX-pythia8_25ns_v7_job_478_skim80.root'
p1639
(I657030595
F1461699643
tp1640
sS'/storage/a/wayand/cmss80x/Zll_DYJetsToLL_M-50_amcatnloFXFX-pythia8_25ns_v7_job_336_skim80.root'
p1641
(I667279329
F1461694427
tp1642
sS'/storage/a/wayand/cmss80x/Zll_DYJetsToLL_M-50_amcatnloFXFX-pythia8_25ns_v7_job_1065_skim80.root'
p1643
(I412594853
F1461725455
tp1644
sS'/storage/a/wayand/cmss80x/Zll_DYJetsToLL_M-50_amcatnloFXFX-pythia8_25ns_v7_job_404_skim80.root'
p1645
(I666665649
F1461699250
tp1646
sS'/storage/a/wayand/cmss80x/Zll_DYJetsToLL_M-50_amcatnloFXFX-pythia8_25ns_v7_job_160_skim80.root'
p1647
(I661713009
F1461706906
tp1648
sS'/storage/a/wayand/cmss80x/Zll_DYJetsToLL_M-50_amcatnloFXFX-pythia8_25ns_v7_job_194_skim80.root'
p1649
(I432561157
F1461689470
tp1650
sS'/portal/ekpcms6/home/dhaitz/new_artus/Excalibur/data/json/Cert_246908-260627_13TeV_PromptReco_Collisions15_25ns_JSON_v2.txt'
p1651
(I6469
F1464357826.2773709
tp1652
sS'/storage/a/wayand/cmss80x/Zll_DYJetsToLL_M-50_amcatnloFXFX-pythia8_25ns_v7_job_116_skim80.root'
p1653
(I673042427
F1461697724
tp1654
sS'/storage/a/wayand/cmss80x/Zll_DYJetsToLL_M-50_amcatnloFXFX-pythia8_25ns_v7_job_574_skim80.root'
p1655
(I672573583
F1461695844
tp1656
sS'/storage/a/wayand/cmss80x/Zll_DYJetsToLL_M-50_amcatnloFXFX-pythia8_25ns_v7_job_832_skim80.root'
p1657
(I666568236
F1461720184
tp1658
sS'/storage/a/wayand/cmss80x/Zll_DYJetsToLL_M-50_amcatnloFXFX-pythia8_25ns_v7_job_806_skim80.root'
p1659
(I655383722
F1461719468
tp1660
sS'/storage/a/wayand/cmss80x/Zll_DYJetsToLL_M-50_amcatnloFXFX-pythia8_25ns_v7_job_399_skim80.root'
p1661
(I653049888
F1461696993
tp1662
sS'/storage/a/wayand/cmss80x/Zll_DYJetsToLL_M-50_amcatnloFXFX-pythia8_25ns_v7_job_1254_skim80.root'
p1663
(I653652601
F1461737544
tp1664
sS'/storage/a/wayand/cmss80x/Zll_DYJetsToLL_M-50_amcatnloFXFX-pythia8_25ns_v7_job_371_skim80.root'
p1665
(I671862833
F1461696226
tp1666
sS'/storage/a/wayand/cmss80x/Zll_DYJetsToLL_M-50_amcatnloFXFX-pythia8_25ns_v7_job_504_skim80.root'
p1667
(I667388531
F1461697501
tp1668
sS'/storage/a/wayand/cmss80x/Zll_DYJetsToLL_M-50_amcatnloFXFX-pythia8_25ns_v7_job_1179_skim80.root'
p1669
(I666107711
F1461731430
tp1670
sS'/storage/a/wayand/cmss80x/Zll_DYJetsToLL_M-50_amcatnloFXFX-pythia8_25ns_v7_job_1027_skim80.root'
p1671
(I667826656
F1461731229
tp1672
sS'/storage/a/wayand/cmss80x/Zll_DYJetsToLL_M-50_amcatnloFXFX-pythia8_25ns_v7_job_163_skim80.root'
p1673
(I594638786
F1461704464
tp1674
sS'/storage/a/wayand/cmss80x/Zll_DYJetsToLL_M-50_amcatnloFXFX-pythia8_25ns_v7_job_140_skim80.root'
p1675
(I504494020
F1461691363
tp1676
sS'/storage/a/wayand/cmss80x/Zll_DYJetsToLL_M-50_amcatnloFXFX-pythia8_25ns_v7_job_954_skim80.root'
p1677
(I656981840
F1461730291
tp1678
sS'/storage/a/wayand/cmss80x/Zll_DYJetsToLL_M-50_amcatnloFXFX-pythia8_25ns_v7_job_619_skim80.root'
p1679
(I656153800
F1461715167
tp1680
sS'/storage/a/wayand/cmss80x/Zll_DYJetsToLL_M-50_amcatnloFXFX-pythia8_25ns_v7_job_1458_skim80.root'
p1681
(I583590485
F1461737502
tp1682
sS'/storage/a/wayand/cmss80x/Zll_DYJetsToLL_M-50_amcatnloFXFX-pythia8_25ns_v7_job_776_skim80.root'
p1683
(I339265651
F1461715192
tp1684
sS'/storage/a/wayand/cmss80x/Zll_DYJetsToLL_M-50_amcatnloFXFX-pythia8_25ns_v7_job_1535_skim80.root'
p1685
(I356390374
F1461732609
tp1686
sS'/storage/a/wayand/cmss80x/Zll_DYJetsToLL_M-50_amcatnloFXFX-pythia8_25ns_v7_job_880_skim80.root'
p1687
(I669642893
F1461720612
tp1688
sS'/storage/a/wayand/cmss80x/Zll_DYJetsToLL_M-50_amcatnloFXFX-pythia8_25ns_v7_job_370_skim80.root'
p1689
(I650285622
F1461697571
tp1690
sS'/storage/a/wayand/cmss80x/Zll_DYJetsToLL_M-50_amcatnloFXFX-pythia8_25ns_v7_job_733_skim80.root'
p1691
(I560663880
F1461725547
tp1692
sS'/storage/a/wayand/cmss80x/Zll_DYJetsToLL_M-50_amcatnloFXFX-pythia8_25ns_v7_job_544_skim80.root'
p1693
(I673627668
F1461698565
tp1694
sS'/storage/a/wayand/cmss80x/Zll_DYJetsToLL_M-50_amcatnloFXFX-pythia8_25ns_v7_job_1323_skim80.root'
p1695
(I664393469
F1461736926
tp1696
sS'/storage/a/wayand/cmss80x/Zll_DYJetsToLL_M-50_amcatnloFXFX-pythia8_25ns_v7_job_1126_skim80.root'
p1697
(I658950557
F1461733439
tp1698
sS'/storage/a/wayand/cmss80x/Zll_DYJetsToLL_M-50_amcatnloFXFX-pythia8_25ns_v7_job_1153_skim80.root'
p1699
(I350695130
F1461726367
tp1700
sS'/storage/a/wayand/cmss80x/Zll_DYJetsToLL_M-50_amcatnloFXFX-pythia8_25ns_v7_job_123_skim80.root'
p1701
(I359910872
F1461686720
tp1702
sS'/storage/a/wayand/cmss80x/Zll_DYJetsToLL_M-50_amcatnloFXFX-pythia8_25ns_v7_job_968_skim80.root'
p1703
(I654186912
F1461726175
tp1704
sS'/storage/a/wayand/cmss80x/Zll_DYJetsToLL_M-50_amcatnloFXFX-pythia8_25ns_v7_job_1087_skim80.root'
p1705
(I473505179
F1461727804
tp1706
sS'/storage/a/wayand/cmss80x/Zll_DYJetsToLL_M-50_amcatnloFXFX-pythia8_25ns_v7_job_1096_skim80.root'
p1707
(I375105588
F1461724637
tp1708
sS'/storage/a/wayand/cmss80x/Zll_DYJetsToLL_M-50_amcatnloFXFX-pythia8_25ns_v7_job_455_skim80.root'
p1709
(I649692424
F1461696634
tp1710
sS'/storage/a/wayand/cmss80x/Zll_DYJetsToLL_M-50_amcatnloFXFX-pythia8_25ns_v7_job_430_skim80.root'
p1711
(I409426187
F1461689476
tp1712
sS'/storage/a/wayand/cmss80x/Zll_DYJetsToLL_M-50_amcatnloFXFX-pythia8_25ns_v7_job_66_skim80.root'
p1713
(I664373362
F1461704803
tp1714
sS'/storage/a/wayand/cmss80x/Zll_DYJetsToLL_M-50_amcatnloFXFX-pythia8_25ns_v7_job_1618_skim80.root'
p1715
(I607734139
F1461738145
tp1716
sS'/storage/a/wayand/cmss80x/Zll_DYJetsToLL_M-50_amcatnloFXFX-pythia8_25ns_v7_job_206_skim80.root'
p1717
(I348546924
F1461686986
tp1718
sS'/storage/a/wayand/cmss80x/Zll_DYJetsToLL_M-50_amcatnloFXFX-pythia8_25ns_v7_job_356_skim80.root'
p1719
(I472637774
F1461691230
tp1720
sS'/storage/a/wayand/cmss80x/Zll_DYJetsToLL_M-50_amcatnloFXFX-pythia8_25ns_v7_job_938_skim80.root'
p1721
(I661547382
F1461731278
tp1722
sS'/storage/a/wayand/cmss80x/Zll_DYJetsToLL_M-50_amcatnloFXFX-pythia8_25ns_v7_job_1005_skim80.root'
p1723
(I674467548
F1461733973
tp1724
sS'/storage/a/wayand/cmss80x/Zll_DYJetsToLL_M-50_amcatnloFXFX-pythia8_25ns_v7_job_424_skim80.root'
p1725
(I406066481
F1461690059
tp1726
sS'/storage/a/wayand/cmss80x/Zll_DYJetsToLL_M-50_amcatnloFXFX-pythia8_25ns_v7_job_55_skim80.root'
p1727
(I655321723
F1461695549
tp1728
sS'/storage/a/wayand/cmss80x/Zll_DYJetsToLL_M-50_amcatnloFXFX-pythia8_25ns_v7_job_1250_skim80.root'
p1729
(I659935648
F1461734379
tp1730
sS'/storage/a/wayand/cmss80x/Zll_DYJetsToLL_M-50_amcatnloFXFX-pythia8_25ns_v7_job_1664_skim80.root'
p1731
(I383948233
F1461735854
tp1732
sS'/storage/a/wayand/cmss80x/Zll_DYJetsToLL_M-50_amcatnloFXFX-pythia8_25ns_v7_job_201_skim80.root'
p1733
(I478766705
F1461698293
tp1734
sS'/storage/a/wayand/cmss80x/Zll_DYJetsToLL_M-50_amcatnloFXFX-pythia8_25ns_v7_job_575_skim80.root'
p1735
(I658946026
F1461696393
tp1736
sS'/storage/a/wayand/cmss80x/Zll_DYJetsToLL_M-50_amcatnloFXFX-pythia8_25ns_v7_job_1334_skim80.root'
p1737
(I384571918
F1461730908
tp1738
sS'/storage/a/wayand/cmss80x/Zll_DYJetsToLL_M-50_amcatnloFXFX-pythia8_25ns_v7_job_446_skim80.root'
p1739
(I419854535
F1461689624
tp1740
sS'/storage/a/wayand/cmss80x/Zll_DYJetsToLL_M-50_amcatnloFXFX-pythia8_25ns_v7_job_1599_skim80.root'
p1741
(I438462117
F1461735927
tp1742
sS'/storage/a/wayand/cmss80x/Zll_DYJetsToLL_M-50_amcatnloFXFX-pythia8_25ns_v7_job_8_skim80.root'
p1743
(I559856935
F1461700620
tp1744
sS'/storage/a/wayand/cmss80x/Zll_DYJetsToLL_M-50_amcatnloFXFX-pythia8_25ns_v7_job_761_skim80.root'
p1745
(I470865785
F1461714868
tp1746
sS'/storage/a/wayand/cmss80x/Zll_DYJetsToLL_M-50_amcatnloFXFX-pythia8_25ns_v7_job_1390_skim80.root'
p1747
(I26418219
F1461720313
tp1748
sS'/storage/a/wayand/cmss80x/Zll_DYJetsToLL_M-50_amcatnloFXFX-pythia8_25ns_v7_job_1555_skim80.root'
p1749
(I73364755
F1461724207
tp1750
sS'/storage/a/wayand/cmss80x/Zll_DYJetsToLL_M-50_amcatnloFXFX-pythia8_25ns_v7_job_353_skim80.root'
p1751
(I651204610
F1461697301
tp1752
sS'/storage/a/wayand/cmss80x/Zll_DYJetsToLL_M-50_amcatnloFXFX-pythia8_25ns_v7_job_1000_skim80.root'
p1753
(I666406170
F1461732176
tp1754
sS'/storage/a/wayand/cmss80x/Zll_DYJetsToLL_M-50_amcatnloFXFX-pythia8_25ns_v7_job_1604_skim80.root'
p1755
(I463793218
F1461737591
tp1756
sS'/storage/a/wayand/cmss80x/Zll_DYJetsToLL_M-50_amcatnloFXFX-pythia8_25ns_v7_job_385_skim80.root'
p1757
(I656500490
F1461707834
tp1758
sS'/storage/a/wayand/cmss80x/Zll_DYJetsToLL_M-50_amcatnloFXFX-pythia8_25ns_v7_job_300_skim80.root'
p1759
(I670072404
F1461701721
tp1760
sS'/storage/a/wayand/cmss80x/Zll_DYJetsToLL_M-50_amcatnloFXFX-pythia8_25ns_v7_job_1031_skim80.root'
p1761
(I669363623
F1461733299
tp1762
sS'/storage/a/wayand/cmss80x/Zll_DYJetsToLL_M-50_amcatnloFXFX-pythia8_25ns_v7_job_1377_skim80.root'
p1763
(I460295145
F1461733214
tp1764
sS'/storage/a/wayand/cmss80x/Zll_DYJetsToLL_M-50_amcatnloFXFX-pythia8_25ns_v7_job_349_skim80.root'
p1765
(I653301221
F1461696881
tp1766
sS'/storage/a/wayand/cmss80x/Zll_DYJetsToLL_M-50_amcatnloFXFX-pythia8_25ns_v7_job_1209_skim80.root'
p1767
(I381660133
F1461726570
tp1768
sS'/storage/a/wayand/cmss80x/Zll_DYJetsToLL_M-50_amcatnloFXFX-pythia8_25ns_v7_job_1373_skim80.root'
p1769
(I665711542
F1461737473
tp1770
sS'/storage/a/wayand/cmss80x/Zll_DYJetsToLL_M-50_amcatnloFXFX-pythia8_25ns_v7_job_1238_skim80.root'
p1771
(I413533494
F1461729035
tp1772
sS'/storage/a/wayand/cmss80x/Zll_DYJetsToLL_M-50_amcatnloFXFX-pythia8_25ns_v7_job_1021_skim80.root'
p1773
(I665286483
F1461732474
tp1774
sS'/storage/a/wayand/cmss80x/Zll_DYJetsToLL_M-50_amcatnloFXFX-pythia8_25ns_v7_job_715_skim80.root'
p1775
(I356275275
F1461709236
tp1776
sS'/storage/a/wayand/cmss80x/Zll_DYJetsToLL_M-50_amcatnloFXFX-pythia8_25ns_v7_job_1114_skim80.root'
p1777
(I673764997
F1461733184
tp1778
sS'/storage/a/wayand/cmss80x/Zll_DYJetsToLL_M-50_amcatnloFXFX-pythia8_25ns_v7_job_85_skim80.root'
p1779
(I645769948
F1461697335
tp1780
sS'/storage/a/wayand/cmss80x/Zll_DYJetsToLL_M-50_amcatnloFXFX-pythia8_25ns_v7_job_1295_skim80.root'
p1781
(I360945185
F1461727654
tp1782
sS'/storage/a/wayand/cmss80x/Zll_DYJetsToLL_M-50_amcatnloFXFX-pythia8_25ns_v7_job_425_skim80.root'
p1783
(I357899551
F1461689335
tp1784
sS'/storage/a/wayand/cmss80x/Zll_DYJetsToLL_M-50_amcatnloFXFX-pythia8_25ns_v7_job_27_skim80.root'
p1785
(I662667883
F1461706678
tp1786
sS'/storage/a/wayand/cmss80x/Zll_DYJetsToLL_M-50_amcatnloFXFX-pythia8_25ns_v7_job_1398_skim80.root'
p1787
(I100250924
F1461722555
tp1788
sS'/storage/a/wayand/cmss80x/Zll_DYJetsToLL_M-50_amcatnloFXFX-pythia8_25ns_v7_job_911_skim80.root'
p1789
(I673944693
F1461724214
tp1790
sS'/storage/a/wayand/cmss80x/Zll_DYJetsToLL_M-50_amcatnloFXFX-pythia8_25ns_v7_job_1404_skim80.root'
p1791
(I24413736
F1461720538
tp1792
sS'/storage/a/wayand/cmss80x/Zll_DYJetsToLL_M-50_amcatnloFXFX-pythia8_25ns_v7_job_1335_skim80.root'
p1793
(I539753368
F1461734678
tp1794
sS'/storage/a/wayand/cmss80x/Zll_DYJetsToLL_M-50_amcatnloFXFX-pythia8_25ns_v7_job_1223_skim80.root'
p1795
(I385905214
F1461725509
tp1796
sS'/storage/a/wayand/cmss80x/Zll_DYJetsToLL_M-50_amcatnloFXFX-pythia8_25ns_v7_job_1255_skim80.root'
p1797
(I655722482
F1461735568
tp1798
sS'/storage/a/wayand/cmss80x/Zll_DYJetsToLL_M-50_amcatnloFXFX-pythia8_25ns_v7_job_282_skim80.root'
p1799
(I626653452
F1461706243
tp1800
sS'/storage/a/wayand/cmss80x/Zll_DYJetsToLL_M-50_amcatnloFXFX-pythia8_25ns_v7_job_780_skim80.root'
p1801
(I357530958
F1461710100
tp1802
sS'/storage/a/wayand/cmss80x/Zll_DYJetsToLL_M-50_amcatnloFXFX-pythia8_25ns_v7_job_34_skim80.root'
p1803
(I656234294
F1461695843
tp1804
sS'/storage/a/wayand/cmss80x/Zll_DYJetsToLL_M-50_amcatnloFXFX-pythia8_25ns_v7_job_734_skim80.root'
p1805
(I651178968
F1461720351
tp1806
sS'/storage/a/wayand/cmss80x/Zll_DYJetsToLL_M-50_amcatnloFXFX-pythia8_25ns_v7_job_212_skim80.root'
p1807
(I372425913
F1461689044
tp1808
sS'/storage/a/wayand/cmss80x/Zll_DYJetsToLL_M-50_amcatnloFXFX-pythia8_25ns_v7_job_294_skim80.root'
p1809
(I668627105
F1461698149
tp1810
sS'/storage/a/wayand/cmss80x/Zll_DYJetsToLL_M-50_amcatnloFXFX-pythia8_25ns_v7_job_405_skim80.root'
p1811
(I673179478
F1461697233
tp1812
sS'/storage/a/wayand/cmss80x/Zll_DYJetsToLL_M-50_amcatnloFXFX-pythia8_25ns_v7_job_1064_skim80.root'
p1813
(I663310390
F1461733724
tp1814
sS'/storage/a/wayand/cmss80x/Zll_DYJetsToLL_M-50_amcatnloFXFX-pythia8_25ns_v7_job_896_skim80.root'
p1815
(I606743268
F1461721207
tp1816
sS'/storage/a/wayand/cmss80x/Zll_DYJetsToLL_M-50_amcatnloFXFX-pythia8_25ns_v7_job_641_skim80.root'
p1817
(I671546393
F1461718093
tp1818
sS'/storage/a/wayand/cmss80x/Zll_DYJetsToLL_M-50_amcatnloFXFX-pythia8_25ns_v7_job_154_skim80.root'
p1819
(I668544715
F1461708068
tp1820
sS'/storage/a/wayand/cmss80x/Zll_DYJetsToLL_M-50_amcatnloFXFX-pythia8_25ns_v7_job_801_skim80.root'
p1821
(I652940535
F1461718022
tp1822
sS'/storage/a/wayand/cmss80x/Zll_DYJetsToLL_M-50_amcatnloFXFX-pythia8_25ns_v7_job_169_skim80.root'
p1823
(I651241626
F1461697270
tp1824
sS'/storage/a/wayand/cmss80x/Zll_DYJetsToLL_M-50_amcatnloFXFX-pythia8_25ns_v7_job_95_skim80.root'
p1825
(I657502005
F1461697971
tp1826
sS'/portal/ekpcms6/home/dhaitz/new_artus/Excalibur/data/pileup/pileup_json_Cert_246908-260627_13TeV_PromptReco_Collisions15_25ns_JSON_v2_to_cmss80x_ST_xsec_69.0_weights_0-4.root'
p1827
(I6996
F1464358083.0215507
tp1828
sS'/storage/a/wayand/cmss80x/Zll_DYJetsToLL_M-50_amcatnloFXFX-pythia8_25ns_v7_job_64_skim80.root'
p1829
(I354080197
F1461702191
tp1830
sS'/storage/a/wayand/cmss80x/Zll_DYJetsToLL_M-50_amcatnloFXFX-pythia8_25ns_v7_job_344_skim80.root'
p1831
(I656182856
F1461696399
tp1832
sS'/storage/a/wayand/cmss80x/Zll_DYJetsToLL_M-50_amcatnloFXFX-pythia8_25ns_v7_job_441_skim80.root'
p1833
(I349392108
F1461688107
tp1834
sS'/storage/a/wayand/cmss80x/Zll_DYJetsToLL_M-50_amcatnloFXFX-pythia8_25ns_v7_job_934_skim80.root'
p1835
(I387022587
F1461720630
tp1836
sS'/storage/a/wayand/cmss80x/Zll_DYJetsToLL_M-50_amcatnloFXFX-pythia8_25ns_v7_job_285_skim80.root'
p1837
(I663864816
F1461694859
tp1838
sS'/storage/a/wayand/cmss80x/Zll_DYJetsToLL_M-50_amcatnloFXFX-pythia8_25ns_v7_job_1422_skim80.root'
p1839
(I660952301
F1461738352
tp1840
sS'/storage/a/wayand/cmss80x/Zll_DYJetsToLL_M-50_amcatnloFXFX-pythia8_25ns_v7_job_925_skim80.root'
p1841
(I668878570
F1461724644
tp1842
sS'/storage/a/wayand/cmss80x/Zll_DYJetsToLL_M-50_amcatnloFXFX-pythia8_25ns_v7_job_1347_skim80.root'
p1843
(I666978431
F1461738686
tp1844
sS'/storage/a/wayand/cmss80x/Zll_DYJetsToLL_M-50_amcatnloFXFX-pythia8_25ns_v7_job_113_skim80.root'
p1845
(I363659372
F1461687341
tp1846
sS'/storage/a/wayand/cmss80x/Zll_DYJetsToLL_M-50_amcatnloFXFX-pythia8_25ns_v7_job_659_skim80.root'
p1847
(I668514228
F1461714905
tp1848
sS'/storage/a/wayand/cmss80x/Zll_DYJetsToLL_M-50_amcatnloFXFX-pythia8_25ns_v7_job_1342_skim80.root'
p1849
(I668788215
F1461736919
tp1850
sS'/storage/a/wayand/cmss80x/Zll_DYJetsToLL_M-50_amcatnloFXFX-pythia8_25ns_v7_job_1524_skim80.root'
p1851
(I103390077
F1461724562
tp1852
sS'/storage/a/wayand/cmss80x/Zll_DYJetsToLL_M-50_amcatnloFXFX-pythia8_25ns_v7_job_23_skim80.root'
p1853
(I674716083
F1461715685
tp1854
sS'/storage/a/wayand/cmss80x/Zll_DYJetsToLL_M-50_amcatnloFXFX-pythia8_25ns_v7_job_17_skim80.root'
p1855
(I666030634
F1461694790
tp1856
sS'/storage/a/wayand/cmss80x/Zll_DYJetsToLL_M-50_amcatnloFXFX-pythia8_25ns_v7_job_1284_skim80.root'
p1857
(I356532793
F1461727087
tp1858
sS'/storage/a/wayand/cmss80x/Zll_DYJetsToLL_M-50_amcatnloFXFX-pythia8_25ns_v7_job_232_skim80.root'
p1859
(I520476176
F1461699483
tp1860
sS'/storage/a/wayand/cmss80x/Zll_DYJetsToLL_M-50_amcatnloFXFX-pythia8_25ns_v7_job_10_skim80.root'
p1861
(I672642751
F1461724040
tp1862
sS'/storage/a/wayand/cmss80x/Zll_DYJetsToLL_M-50_amcatnloFXFX-pythia8_25ns_v7_job_1500_skim80.root'
p1863
(I415608201
F1461738079
tp1864
sS'/storage/a/wayand/cmss80x/Zll_DYJetsToLL_M-50_amcatnloFXFX-pythia8_25ns_v7_job_1369_skim80.root'
p1865
(I25391478
F1461719827
tp1866
sS'/storage/a/wayand/cmss80x/Zll_DYJetsToLL_M-50_amcatnloFXFX-pythia8_25ns_v7_job_992_skim80.root'
p1867
(I667033651
F1461731460
tp1868
sS'/storage/a/wayand/cmss80x/Zll_DYJetsToLL_M-50_amcatnloFXFX-pythia8_25ns_v7_job_630_skim80.root'
p1869
(I529593259
F1461712254
tp1870
sS'/storage/a/wayand/cmss80x/Zll_DYJetsToLL_M-50_amcatnloFXFX-pythia8_25ns_v7_job_656_skim80.root'
p1871
(I666687619
F1461718461
tp1872
sS'/storage/a/wayand/cmss80x/Zll_DYJetsToLL_M-50_amcatnloFXFX-pythia8_25ns_v7_job_1644_skim80.root'
p1873
(I454262636
F1461737714
tp1874
sS'/storage/a/wayand/cmss80x/Zll_DYJetsToLL_M-50_amcatnloFXFX-pythia8_25ns_v7_job_539_skim80.root'
p1875
(I669117671
F1461698998
tp1876
sS'/storage/a/wayand/cmss80x/Zll_DYJetsToLL_M-50_amcatnloFXFX-pythia8_25ns_v7_job_291_skim80.root'
p1877
(I664066740
F1461694646
tp1878
sS'/storage/a/wayand/cmss80x/Zll_DYJetsToLL_M-50_amcatnloFXFX-pythia8_25ns_v7_job_1636_skim80.root'
p1879
(I399754105
F1461734286
tp1880
sS'/storage/a/wayand/cmss80x/Zll_DYJetsToLL_M-50_amcatnloFXFX-pythia8_25ns_v7_job_331_skim80.root'
p1881
(I660172351
F1461696515
tp1882
sS'/storage/a/wayand/cmss80x/Zll_DYJetsToLL_M-50_amcatnloFXFX-pythia8_25ns_v7_job_193_skim80.root'
p1883
(I397891653
F1461689735
tp1884
sS'/storage/a/wayand/cmss80x/Zll_DYJetsToLL_M-50_amcatnloFXFX-pythia8_25ns_v7_job_879_skim80.root'
p1885
(I656394067
F1461722887
tp1886
sS'/storage/a/wayand/cmss80x/Zll_DYJetsToLL_M-50_amcatnloFXFX-pythia8_25ns_v7_job_502_skim80.root'
p1887
(I666194099
F1461697116
tp1888
sS'/storage/a/wayand/cmss80x/Zll_DYJetsToLL_M-50_amcatnloFXFX-pythia8_25ns_v7_job_322_skim80.root'
p1889
(I447922137
F1461690103
tp1890
sS'/storage/a/wayand/cmss80x/Zll_DYJetsToLL_M-50_amcatnloFXFX-pythia8_25ns_v7_job_37_skim80.root'
p1891
(I659807050
F1461697161
tp1892
sS'/storage/a/wayand/cmss80x/Zll_DYJetsToLL_M-50_amcatnloFXFX-pythia8_25ns_v7_job_1635_skim80.root'
p1893
(I579161852
F1461738082
tp1894
sS'/storage/a/wayand/cmss80x/Zll_DYJetsToLL_M-50_amcatnloFXFX-pythia8_25ns_v7_job_652_skim80.root'
p1895
(I654117576
F1461715405
tp1896
sS'/storage/a/wayand/cmss80x/Zll_DYJetsToLL_M-50_amcatnloFXFX-pythia8_25ns_v7_job_587_skim80.root'
p1897
(I667150982
F1461697481
tp1898
sS'/storage/a/wayand/cmss80x/Zll_DYJetsToLL_M-50_amcatnloFXFX-pythia8_25ns_v7_job_1033_skim80.root'
p1899
(I654042453
F1461730694
tp1900
sS'/storage/a/wayand/cmss80x/Zll_DYJetsToLL_M-50_amcatnloFXFX-pythia8_25ns_v7_job_953_skim80.root'
p1901
(I654281846
F1461730446
tp1902
sS'/storage/a/wayand/cmss80x/Zll_DYJetsToLL_M-50_amcatnloFXFX-pythia8_25ns_v7_job_593_skim80.root'
p1903
(I569448306
F1461694011
tp1904
sS'/storage/a/wayand/cmss80x/Zll_DYJetsToLL_M-50_amcatnloFXFX-pythia8_25ns_v7_job_90_skim80.root'
p1905
(I649930755
F1461696001
tp1906
sS'/storage/a/wayand/cmss80x/Zll_DYJetsToLL_M-50_amcatnloFXFX-pythia8_25ns_v7_job_1386_skim80.root'
p1907
(I324022601
F1461728248
tp1908
sS'/storage/a/wayand/cmss80x/Zll_DYJetsToLL_M-50_amcatnloFXFX-pythia8_25ns_v7_job_1512_skim80.root'
p1909
(I545375811
F1461737020
tp1910
sS'/storage/a/wayand/cmss80x/Zll_DYJetsToLL_M-50_amcatnloFXFX-pythia8_25ns_v7_job_104_skim80.root'
p1911
(I673195473
F1461698169
tp1912
sS'/storage/a/wayand/cmss80x/Zll_DYJetsToLL_M-50_amcatnloFXFX-pythia8_25ns_v7_job_1038_skim80.root'
p1913
(I652720413
F1461735195
tp1914
sS'/storage/a/wayand/cmss80x/Zll_DYJetsToLL_M-50_amcatnloFXFX-pythia8_25ns_v7_job_309_skim80.root'
p1915
(I364745897
F1461686377
tp1916
sS'/storage/a/wayand/cmss80x/Zll_DYJetsToLL_M-50_amcatnloFXFX-pythia8_25ns_v7_job_549_skim80.root'
p1917
(I671708548
F1461697853
tp1918
sS'/storage/a/wayand/cmss80x/Zll_DYJetsToLL_M-50_amcatnloFXFX-pythia8_25ns_v7_job_313_skim80.root'
p1919
(I372500407
F1461687951
tp1920
sS'/storage/a/wayand/cmss80x/Zll_DYJetsToLL_M-50_amcatnloFXFX-pythia8_25ns_v7_job_368_skim80.root'
p1921
(I668305031
F1461696091
tp1922
sS'/storage/a/wayand/cmss80x/Zll_DYJetsToLL_M-50_amcatnloFXFX-pythia8_25ns_v7_job_1150_skim80.root'
p1923
(I644612864
F1461732895
tp1924
sS'/storage/a/wayand/cmss80x/Zll_DYJetsToLL_M-50_amcatnloFXFX-pythia8_25ns_v7_job_869_skim80.root'
p1925
(I657520247
F1461722053
tp1926
sS'/storage/a/wayand/cmss80x/Zll_DYJetsToLL_M-50_amcatnloFXFX-pythia8_25ns_v7_job_1237_skim80.root'
p1927
(I670594098
F1461732442
tp1928
sS'/storage/a/wayand/cmss80x/Zll_DYJetsToLL_M-50_amcatnloFXFX-pythia8_25ns_v7_job_1194_skim80.root'
p1929
(I478398649
F1461728051
tp1930
sS'/storage/a/wayand/cmss80x/Zll_DYJetsToLL_M-50_amcatnloFXFX-pythia8_25ns_v7_job_753_skim80.root'
p1931
(I476161755
F1461720130
tp1932
sS'/storage/a/wayand/cmss80x/Zll_DYJetsToLL_M-50_amcatnloFXFX-pythia8_25ns_v7_job_204_skim80.root'
p1933
(I363645963
F1461687357
tp1934
sS'/storage/a/wayand/cmss80x/Zll_DYJetsToLL_M-50_amcatnloFXFX-pythia8_25ns_v7_job_1511_skim80.root'
p1935
(I599667478
F1461737998
tp1936
sS'/storage/a/wayand/cmss80x/Zll_DYJetsToLL_M-50_amcatnloFXFX-pythia8_25ns_v7_job_804_skim80.root'
p1937
(I601557393
F1461718285
tp1938
sS'/storage/a/wayand/cmss80x/Zll_DYJetsToLL_M-50_amcatnloFXFX-pythia8_25ns_v7_job_303_skim80.root'
p1939
(I520113428
F1461692259
tp1940
sS'/storage/a/wayand/cmss80x/Zll_DYJetsToLL_M-50_amcatnloFXFX-pythia8_25ns_v7_job_535_skim80.root'
p1941
(I672637033
F1461697938
tp1942
sS'/storage/a/wayand/cmss80x/Zll_DYJetsToLL_M-50_amcatnloFXFX-pythia8_25ns_v7_job_94_skim80.root'
p1943
(I666088730
F1461698448
tp1944
sS'/storage/a/wayand/cmss80x/Zll_DYJetsToLL_M-50_amcatnloFXFX-pythia8_25ns_v7_job_1_skim80.root'
p1945
(I658450251
F1461704931
tp1946
sS'/storage/a/wayand/cmss80x/Zll_DYJetsToLL_M-50_amcatnloFXFX-pythia8_25ns_v7_job_223_skim80.root'
p1947
(I368061584
F1461689326
tp1948
sS'/storage/a/wayand/cmss80x/Zll_DYJetsToLL_M-50_amcatnloFXFX-pythia8_25ns_v7_job_607_skim80.root'
p1949
(I414043960
F1461690752
tp1950
sS'/storage/a/wayand/cmss80x/Zll_DYJetsToLL_M-50_amcatnloFXFX-pythia8_25ns_v7_job_307_skim80.root'
p1951
(I591551636
F1461695216
tp1952
sS'/storage/a/wayand/cmss80x/Zll_DYJetsToLL_M-50_amcatnloFXFX-pythia8_25ns_v7_job_234_skim80.root'
p1953
(I655995710
F1461696810
tp1954
sS'/storage/a/wayand/cmss80x/Zll_DYJetsToLL_M-50_amcatnloFXFX-pythia8_25ns_v7_job_1003_skim80.root'
p1955
(I665729247
F1461733570
tp1956
sS'/storage/a/wayand/cmss80x/Zll_DYJetsToLL_M-50_amcatnloFXFX-pythia8_25ns_v7_job_1149_skim80.root'
p1957
(I573923247
F1461733367
tp1958
sS'/storage/a/wayand/cmss80x/Zll_DYJetsToLL_M-50_amcatnloFXFX-pythia8_25ns_v7_job_655_skim80.root'
p1959
(I649462680
F1461723622
tp1960
sS'/storage/a/wayand/cmss80x/Zll_DYJetsToLL_M-50_amcatnloFXFX-pythia8_25ns_v7_job_1083_skim80.root'
p1961
(I404368275
F1461724057
tp1962
sS'/storage/a/wayand/cmss80x/Zll_DYJetsToLL_M-50_amcatnloFXFX-pythia8_25ns_v7_job_338_skim80.root'
p1963
(I665965798
F1461699112
tp1964
sS'/storage/a/wayand/cmss80x/Zll_DYJetsToLL_M-50_amcatnloFXFX-pythia8_25ns_v7_job_297_skim80.root'
p1965
(I385610216
F1461688462
tp1966
sS'/storage/a/wayand/cmss80x/Zll_DYJetsToLL_M-50_amcatnloFXFX-pythia8_25ns_v7_job_611_skim80.root'
p1967
(I393232813
F1461704318
tp1968
sS'/storage/a/wayand/cmss80x/Zll_DYJetsToLL_M-50_amcatnloFXFX-pythia8_25ns_v7_job_1517_skim80.root'
p1969
(I550458916
F1461737678
tp1970
sS'/storage/a/wayand/cmss80x/Zll_DYJetsToLL_M-50_amcatnloFXFX-pythia8_25ns_v7_job_802_skim80.root'
p1971
(I592979621
F1461719160
tp1972
sS'/storage/a/wayand/cmss80x/Zll_DYJetsToLL_M-50_amcatnloFXFX-pythia8_25ns_v7_job_486_skim80.root'
p1973
(I661381329
F1461697759
tp1974
sS'/storage/a/wayand/cmss80x/Zll_DYJetsToLL_M-50_amcatnloFXFX-pythia8_25ns_v7_job_986_skim80.root'
p1975
(I666743192
F1461733791
tp1976
sS'/storage/a/wayand/cmss80x/Zll_DYJetsToLL_M-50_amcatnloFXFX-pythia8_25ns_v7_job_805_skim80.root'
p1977
(I663588015
F1461720063
tp1978
sS'/storage/a/wayand/cmss80x/Zll_DYJetsToLL_M-50_amcatnloFXFX-pythia8_25ns_v7_job_237_skim80.root'
p1979
(I658523626
F1461707577
tp1980
sS'/storage/a/wayand/cmss80x/Zll_DYJetsToLL_M-50_amcatnloFXFX-pythia8_25ns_v7_job_1244_skim80.root'
p1981
(I475467350
F1461729425
tp1982
sS'/storage/a/wayand/cmss80x/Zll_DYJetsToLL_M-50_amcatnloFXFX-pythia8_25ns_v7_job_933_skim80.root'
p1983
(I674644965
F1461728085
tp1984
sS'/storage/a/wayand/cmss80x/Zll_DYJetsToLL_M-50_amcatnloFXFX-pythia8_25ns_v7_job_962_skim80.root'
p1985
(I672744331
F1461732071
tp1986
sS'/storage/a/wayand/cmss80x/Zll_DYJetsToLL_M-50_amcatnloFXFX-pythia8_25ns_v7_job_831_skim80.root'
p1987
(I652795914
F1461720769
tp1988
sS'/storage/a/wayand/cmss80x/Zll_DYJetsToLL_M-50_amcatnloFXFX-pythia8_25ns_v7_job_30_skim80.root'
p1989
(I672853411
F1461698608
tp1990
sS'/storage/a/wayand/cmss80x/Zll_DYJetsToLL_M-50_amcatnloFXFX-pythia8_25ns_v7_job_1084_skim80.root'
p1991
(I658665798
F1461733571
tp1992
sS'/storage/a/wayand/cmss80x/Zll_DYJetsToLL_M-50_amcatnloFXFX-pythia8_25ns_v7_job_898_skim80.root'
p1993
(I666192664
F1461722869
tp1994
sS'/storage/a/wayand/cmss80x/Zll_DYJetsToLL_M-50_amcatnloFXFX-pythia8_25ns_v7_job_114_skim80.root'
p1995
(I672410794
F1461695645
tp1996
sS'/storage/a/wayand/cmss80x/Zll_DYJetsToLL_M-50_amcatnloFXFX-pythia8_25ns_v7_job_1119_skim80.root'
p1997
(I675882763
F1461735096
tp1998
sS'/storage/a/wayand/cmss80x/Zll_DYJetsToLL_M-50_amcatnloFXFX-pythia8_25ns_v7_job_959_skim80.root'
p1999
(I648668809
F1461727667
tp2000
sS'/storage/a/wayand/cmss80x/Zll_DYJetsToLL_M-50_amcatnloFXFX-pythia8_25ns_v7_job_428_skim80.root'
p2001
(I436982695
F1461691213
tp2002
sS'/storage/a/wayand/cmss80x/Zll_DYJetsToLL_M-50_amcatnloFXFX-pythia8_25ns_v7_job_913_skim80.root'
p2003
(I662268381
F1461726029
tp2004
sS'/storage/a/wayand/cmss80x/Zll_DYJetsToLL_M-50_amcatnloFXFX-pythia8_25ns_v7_job_1406_skim80.root'
p2005
(I649573941
F1461736852
tp2006
sS'/storage/a/wayand/cmss80x/Zll_DYJetsToLL_M-50_amcatnloFXFX-pythia8_25ns_v7_job_143_skim80.root'
p2007
(I559420009
F1461698676
tp2008
sS'/storage/a/wayand/cmss80x/Zll_DYJetsToLL_M-50_amcatnloFXFX-pythia8_25ns_v7_job_162_skim80.root'
p2009
(I491294357
F1461695402
tp2010
sS'/storage/a/wayand/cmss80x/Zll_DYJetsToLL_M-50_amcatnloFXFX-pythia8_25ns_v7_job_961_skim80.root'
p2011
(I657803956
F1461734668
tp2012
sS'/storage/a/wayand/cmss80x/Zll_DYJetsToLL_M-50_amcatnloFXFX-pythia8_25ns_v7_job_1210_skim80.root'
p2013
(I510418329
F1461729322
tp2014
sS'/storage/a/wayand/cmss80x/Zll_DYJetsToLL_M-50_amcatnloFXFX-pythia8_25ns_v7_job_1651_skim80.root'
p2015
(I403696881
F1461734743
tp2016
sS'/storage/a/wayand/cmss80x/Zll_DYJetsToLL_M-50_amcatnloFXFX-pythia8_25ns_v7_job_475_skim80.root'
p2017
(I667697499
F1461696387
tp2018
sS'/storage/a/wayand/cmss80x/Zll_DYJetsToLL_M-50_amcatnloFXFX-pythia8_25ns_v7_job_555_skim80.root'
p2019
(I476131525
F1461692999
tp2020
sS'/storage/a/wayand/cmss80x/Zll_DYJetsToLL_M-50_amcatnloFXFX-pythia8_25ns_v7_job_789_skim80.root'
p2021
(I667119569
F1461720505
tp2022
sS'/storage/a/wayand/cmss80x/Zll_DYJetsToLL_M-50_amcatnloFXFX-pythia8_25ns_v7_job_325_skim80.root'
p2023
(I652435481
F1461694177
tp2024
sS'/storage/a/wayand/cmss80x/Zll_DYJetsToLL_M-50_amcatnloFXFX-pythia8_25ns_v7_job_658_skim80.root'
p2025
(I636906720
F1461715327
tp2026
sS'/storage/a/wayand/cmss80x/Zll_DYJetsToLL_M-50_amcatnloFXFX-pythia8_25ns_v7_job_1320_skim80.root'
p2027
(I673264993
F1461736627
tp2028
sS'/storage/a/wayand/cmss80x/Zll_DYJetsToLL_M-50_amcatnloFXFX-pythia8_25ns_v7_job_318_skim80.root'
p2029
(I211132416
F1461713935
tp2030
sS'/storage/a/wayand/cmss80x/Zll_DYJetsToLL_M-50_amcatnloFXFX-pythia8_25ns_v7_job_1059_skim80.root'
p2031
(I398283004
F1461723853
tp2032
sS'/storage/a/wayand/cmss80x/Zll_DYJetsToLL_M-50_amcatnloFXFX-pythia8_25ns_v7_job_1104_skim80.root'
p2033
(I660501347
F1461733261
tp2034
sS'/storage/a/wayand/cmss80x/Zll_DYJetsToLL_M-50_amcatnloFXFX-pythia8_25ns_v7_job_1196_skim80.root'
p2035
(I576257490
F1461731137
tp2036
sS'/storage/a/wayand/cmss80x/Zll_DYJetsToLL_M-50_amcatnloFXFX-pythia8_25ns_v7_job_1018_skim80.root'
p2037
(I659687906
F1461731920
tp2038
sS'/storage/a/wayand/cmss80x/Zll_DYJetsToLL_M-50_amcatnloFXFX-pythia8_25ns_v7_job_1248_skim80.root'
p2039
(I396243904
F1461729023
tp2040
sS'/storage/a/wayand/cmss80x/Zll_DYJetsToLL_M-50_amcatnloFXFX-pythia8_25ns_v7_job_490_skim80.root'
p2041
(I437865825
F1461691681
tp2042
sS'/storage/a/wayand/cmss80x/Zll_DYJetsToLL_M-50_amcatnloFXFX-pythia8_25ns_v7_job_807_skim80.root'
p2043
(I657950025
F1461719849
tp2044
sS'/storage/a/wayand/cmss80x/Zll_DYJetsToLL_M-50_amcatnloFXFX-pythia8_25ns_v7_job_1168_skim80.root'
p2045
(I648767582
F1461735135
tp2046
sS'/storage/a/wayand/cmss80x/Zll_DYJetsToLL_M-50_amcatnloFXFX-pythia8_25ns_v7_job_521_skim80.root'
p2047
(I668586706
F1461699788
tp2048
sS'/storage/a/wayand/cmss80x/Zll_DYJetsToLL_M-50_amcatnloFXFX-pythia8_25ns_v7_job_812_skim80.root'
p2049
(I667125184
F1461721067
tp2050
sS'/storage/a/wayand/cmss80x/Zll_DYJetsToLL_M-50_amcatnloFXFX-pythia8_25ns_v7_job_1446_skim80.root'
p2051
(I401768496
F1461732889
tp2052
sS'/storage/a/wayand/cmss80x/Zll_DYJetsToLL_M-50_amcatnloFXFX-pythia8_25ns_v7_job_121_skim80.root'
p2053
(I676664664
F1461698765
tp2054
sS'/storage/a/wayand/cmss80x/Zll_DYJetsToLL_M-50_amcatnloFXFX-pythia8_25ns_v7_job_484_skim80.root'
p2055
(I647597193
F1461695935
tp2056
sS'/storage/a/wayand/cmss80x/Zll_DYJetsToLL_M-50_amcatnloFXFX-pythia8_25ns_v7_job_60_skim80.root'
p2057
(I671580103
F1461702238
tp2058
sS'/storage/a/wayand/cmss80x/Zll_DYJetsToLL_M-50_amcatnloFXFX-pythia8_25ns_v7_job_1325_skim80.root'
p2059
(I676061313
F1461737818
tp2060
sS'/storage/a/wayand/cmss80x/Zll_DYJetsToLL_M-50_amcatnloFXFX-pythia8_25ns_v7_job_320_skim80.root'
p2061
(I672970435
F1461698154
tp2062
sS'/storage/a/wayand/cmss80x/Zll_DYJetsToLL_M-50_amcatnloFXFX-pythia8_25ns_v7_job_1164_skim80.root'
p2063
(I673240711
F1461734290
tp2064
sS'/storage/a/wayand/cmss80x/Zll_DYJetsToLL_M-50_amcatnloFXFX-pythia8_25ns_v7_job_1131_skim80.root'
p2065
(I658678596
F1461734985
tp2066
sS'/storage/a/wayand/cmss80x/Zll_DYJetsToLL_M-50_amcatnloFXFX-pythia8_25ns_v7_job_643_skim80.root'
p2067
(I663956991
F1461714257
tp2068
sS'/storage/a/wayand/cmss80x/Zll_DYJetsToLL_M-50_amcatnloFXFX-pythia8_25ns_v7_job_167_skim80.root'
p2069
(I578535064
F1461700785
tp2070
sS'/storage/a/wayand/cmss80x/Zll_DYJetsToLL_M-50_amcatnloFXFX-pythia8_25ns_v7_job_1660_skim80.root'
p2071
(I473498847
F1461738211
tp2072
sS'/storage/a/wayand/cmss80x/Zll_DYJetsToLL_M-50_amcatnloFXFX-pythia8_25ns_v7_job_664_skim80.root'
p2073
(I672235960
F1461715032
tp2074
sS'/storage/a/wayand/cmss80x/Zll_DYJetsToLL_M-50_amcatnloFXFX-pythia8_25ns_v7_job_360_skim80.root'
p2075
(I371276865
F1461689445
tp2076
sS'/storage/a/wayand/cmss80x/Zll_DYJetsToLL_M-50_amcatnloFXFX-pythia8_25ns_v7_job_1158_skim80.root'
p2077
(I350285465
F1461725671
tp2078
sS'/storage/a/wayand/cmss80x/Zll_DYJetsToLL_M-50_amcatnloFXFX-pythia8_25ns_v7_job_476_skim80.root'
p2079
(I662376779
F1461697711
tp2080
sS'/storage/a/wayand/cmss80x/Zll_DYJetsToLL_M-50_amcatnloFXFX-pythia8_25ns_v7_job_1300_skim80.root'
p2081
(I548454448
F1461731937
tp2082
sS'/storage/a/wayand/cmss80x/Zll_DYJetsToLL_M-50_amcatnloFXFX-pythia8_25ns_v7_job_448_skim80.root'
p2083
(I661535130
F1461697183
tp2084
sS'/storage/a/wayand/cmss80x/Zll_DYJetsToLL_M-50_amcatnloFXFX-pythia8_25ns_v7_job_546_skim80.root'
p2085
(I664083200
F1461697370
tp2086
sS'/storage/a/wayand/cmss80x/Zll_DYJetsToLL_M-50_amcatnloFXFX-pythia8_25ns_v7_job_846_skim80.root'
p2087
(I667890176
F1461723715
tp2088
sS'/storage/a/wayand/cmss80x/Zll_DYJetsToLL_M-50_amcatnloFXFX-pythia8_25ns_v7_job_380_skim80.root'
p2089
(I656728248
F1461696398
tp2090
sS'/storage/a/wayand/cmss80x/Zll_DYJetsToLL_M-50_amcatnloFXFX-pythia8_25ns_v7_job_32_skim80.root'
p2091
(I670252044
F1461710384
tp2092
sS'/storage/a/wayand/cmss80x/Zll_DYJetsToLL_M-50_amcatnloFXFX-pythia8_25ns_v7_job_181_skim80.root'
p2093
(I327980007
F1461686581
tp2094
sS'/storage/a/wayand/cmss80x/Zll_DYJetsToLL_M-50_amcatnloFXFX-pythia8_25ns_v7_job_203_skim80.root'
p2095
(I372725360
F1461687942
tp2096
sS'/storage/a/wayand/cmss80x/Zll_DYJetsToLL_M-50_amcatnloFXFX-pythia8_25ns_v7_job_463_skim80.root'
p2097
(I651795802
F1461696825
tp2098
sS'/storage/a/wayand/cmss80x/Zll_DYJetsToLL_M-50_amcatnloFXFX-pythia8_25ns_v7_job_1042_skim80.root'
p2099
(I660929127
F1461731898
tp2100
sS'/storage/a/wayand/cmss80x/Zll_DYJetsToLL_M-50_amcatnloFXFX-pythia8_25ns_v7_job_803_skim80.root'
p2101
(I663664477
F1461718498
tp2102
sS'/storage/a/wayand/cmss80x/Zll_DYJetsToLL_M-50_amcatnloFXFX-pythia8_25ns_v7_job_1516_skim80.root'
p2103
(I576568608
F1461737843
tp2104
sS'/storage/a/wayand/cmss80x/Zll_DYJetsToLL_M-50_amcatnloFXFX-pythia8_25ns_v7_job_993_skim80.root'
p2105
(I652700733
F1461729098
tp2106
sS'/storage/a/wayand/cmss80x/Zll_DYJetsToLL_M-50_amcatnloFXFX-pythia8_25ns_v7_job_716_skim80.root'
p2107
(I489132037
F1461720755
tp2108
sS'/storage/a/wayand/cmss80x/Zll_DYJetsToLL_M-50_amcatnloFXFX-pythia8_25ns_v7_job_974_skim80.root'
p2109
(I402168962
F1461723335
tp2110
sS'/storage/a/wayand/cmss80x/Zll_DYJetsToLL_M-50_amcatnloFXFX-pythia8_25ns_v7_job_1275_skim80.root'
p2111
(I652787183
F1461733009
tp2112
sS'/storage/a/wayand/cmss80x/Zll_DYJetsToLL_M-50_amcatnloFXFX-pythia8_25ns_v7_job_1330_skim80.root'
p2113
(I436597557
F1461732157
tp2114
sS'/storage/a/wayand/cmss80x/Zll_DYJetsToLL_M-50_amcatnloFXFX-pythia8_25ns_v7_job_1234_skim80.root'
p2115
(I449599869
F1461727028
tp2116
sS'/storage/a/wayand/cmss80x/Zll_DYJetsToLL_M-50_amcatnloFXFX-pythia8_25ns_v7_job_1019_skim80.root'
p2117
(I648504788
F1461730686
tp2118
sS'/storage/a/wayand/cmss80x/Zll_DYJetsToLL_M-50_amcatnloFXFX-pythia8_25ns_v7_job_414_skim80.root'
p2119
(I339977306
F1461694320
tp2120
sS'/storage/a/wayand/cmss80x/Zll_DYJetsToLL_M-50_amcatnloFXFX-pythia8_25ns_v7_job_1057_skim80.root'
p2121
(I274207637
F1461721408
tp2122
sS'/storage/a/wayand/cmss80x/Zll_DYJetsToLL_M-50_amcatnloFXFX-pythia8_25ns_v7_job_946_skim80.root'
p2123
(I667438313
F1461731073
tp2124
sS'/storage/a/wayand/cmss80x/Zll_DYJetsToLL_M-50_amcatnloFXFX-pythia8_25ns_v7_job_200_skim80.root'
p2125
(I584366681
F1461694811
tp2126
sS'/storage/a/wayand/cmss80x/Zll_DYJetsToLL_M-50_amcatnloFXFX-pythia8_25ns_v7_job_290_skim80.root'
p2127
(I652270981
F1461694072
tp2128
sS'/storage/a/wayand/cmss80x/Zll_DYJetsToLL_M-50_amcatnloFXFX-pythia8_25ns_v7_job_1419_skim80.root'
p2129
(I479861433
F1461735700
tp2130
sS'/storage/a/wayand/cmss80x/Zll_DYJetsToLL_M-50_amcatnloFXFX-pythia8_25ns_v7_job_644_skim80.root'
p2131
(I668345823
F1461715491
tp2132
sS'/storage/a/wayand/cmss80x/Zll_DYJetsToLL_M-50_amcatnloFXFX-pythia8_25ns_v7_job_577_skim80.root'
p2133
(I663875320
F1461696908
tp2134
sS'/storage/a/wayand/cmss80x/Zll_DYJetsToLL_M-50_amcatnloFXFX-pythia8_25ns_v7_job_526_skim80.root'
p2135
(I640569541
F1461695954
tp2136
sS'/storage/a/wayand/cmss80x/Zll_DYJetsToLL_M-50_amcatnloFXFX-pythia8_25ns_v7_job_1055_skim80.root'
p2137
(I516988770
F1461727974
tp2138
sS'/storage/a/wayand/cmss80x/Zll_DYJetsToLL_M-50_amcatnloFXFX-pythia8_25ns_v7_job_617_skim80.root'
p2139
(I652271187
F1461711792
tp2140
sS'/storage/a/wayand/cmss80x/Zll_DYJetsToLL_M-50_amcatnloFXFX-pythia8_25ns_v7_job_951_skim80.root'
p2141
(I649419792
F1461730139
tp2142
sS'/storage/a/wayand/cmss80x/Zll_DYJetsToLL_M-50_amcatnloFXFX-pythia8_25ns_v7_job_14_skim80.root'
p2143
(I379324525
F1461694415
tp2144
sS'/storage/a/wayand/cmss80x/Zll_DYJetsToLL_M-50_amcatnloFXFX-pythia8_25ns_v7_job_1001_skim80.root'
p2145
(I650553077
F1461730221
tp2146
sS'/storage/a/wayand/cmss80x/Zll_DYJetsToLL_M-50_amcatnloFXFX-pythia8_25ns_v7_job_352_skim80.root'
p2147
(I596091784
F1461695724
tp2148
sS'/storage/a/wayand/cmss80x/Zll_DYJetsToLL_M-50_amcatnloFXFX-pythia8_25ns_v7_job_650_skim80.root'
p2149
(I442220242
F1461712879
tp2150
sS'/storage/a/wayand/cmss80x/Zll_DYJetsToLL_M-50_amcatnloFXFX-pythia8_25ns_v7_job_246_skim80.root'
p2151
(I478891273
F1461691411
tp2152
sS'/storage/a/wayand/cmss80x/Zll_DYJetsToLL_M-50_amcatnloFXFX-pythia8_25ns_v7_job_916_skim80.root'
p2153
(I675143785
F1461723740
tp2154
sS'/storage/a/wayand/cmss80x/Zll_DYJetsToLL_M-50_amcatnloFXFX-pythia8_25ns_v7_job_1202_skim80.root'
p2155
(I354974917
F1461726093
tp2156
sS'/storage/a/wayand/cmss80x/Zll_DYJetsToLL_M-50_amcatnloFXFX-pythia8_25ns_v7_job_99_skim80.root'
p2157
(I663915875
F1461696823
tp2158
sS'/storage/a/wayand/cmss80x/Zll_DYJetsToLL_M-50_amcatnloFXFX-pythia8_25ns_v7_job_437_skim80.root'
p2159
(I586038636
F1461694292
tp2160
sS'/storage/a/wayand/cmss80x/Zll_DYJetsToLL_M-50_amcatnloFXFX-pythia8_25ns_v7_job_976_skim80.root'
p2161
(I461435988
F1461724382
tp2162
sS'/storage/a/wayand/cmss80x/Zll_DYJetsToLL_M-50_amcatnloFXFX-pythia8_25ns_v7_job_872_skim80.root'
p2163
(I665755881
F1461722781
tp2164
sS'/storage/a/wayand/cmss80x/Zll_DYJetsToLL_M-50_amcatnloFXFX-pythia8_25ns_v7_job_263_skim80.root'
p2165
(I520060610
F1461690726
tp2166
sS'/storage/a/wayand/cmss80x/Zll_DYJetsToLL_M-50_amcatnloFXFX-pythia8_25ns_v7_job_377_skim80.root'
p2167
(I648704489
F1461699659
tp2168
sS'/storage/a/wayand/cmss80x/Zll_DYJetsToLL_M-50_amcatnloFXFX-pythia8_25ns_v7_job_1020_skim80.root'
p2169
(I651106772
F1461732355
tp2170
sS'/storage/a/wayand/cmss80x/Zll_DYJetsToLL_M-50_amcatnloFXFX-pythia8_25ns_v7_job_306_skim80.root'
p2171
(I670407362
F1461695850
tp2172
sS'/storage/a/wayand/cmss80x/Zll_DYJetsToLL_M-50_amcatnloFXFX-pythia8_25ns_v7_job_1130_skim80.root'
p2173
(I653894757
F1461734936
tp2174
sS'/storage/a/wayand/cmss80x/Zll_DYJetsToLL_M-50_amcatnloFXFX-pythia8_25ns_v7_job_860_skim80.root'
p2175
(I639318218
F1461723440
tp2176
sS'/storage/a/wayand/cmss80x/Zll_DYJetsToLL_M-50_amcatnloFXFX-pythia8_25ns_v7_job_304_skim80.root'
p2177
(I671424699
F1461698174
tp2178
sS'/storage/a/wayand/cmss80x/Zll_DYJetsToLL_M-50_amcatnloFXFX-pythia8_25ns_v7_job_1167_skim80.root'
p2179
(I404265646
F1461726499
tp2180
sS'/storage/a/wayand/cmss80x/Zll_DYJetsToLL_M-50_amcatnloFXFX-pythia8_25ns_v7_job_1246_skim80.root'
p2181
(I402883486
F1461727301
tp2182
sS'/storage/a/wayand/cmss80x/Zll_DYJetsToLL_M-50_amcatnloFXFX-pythia8_25ns_v7_job_1449_skim80.root'
p2183
(I346325788
F1461735781
tp2184
sS'/storage/a/wayand/cmss80x/Zll_DYJetsToLL_M-50_amcatnloFXFX-pythia8_25ns_v7_job_827_skim80.root'
p2185
(I668235298
F1461721571
tp2186
sS'/storage/a/wayand/cmss80x/Zll_DYJetsToLL_M-50_amcatnloFXFX-pythia8_25ns_v7_job_1183_skim80.root'
p2187
(I675811333
F1461733664
tp2188
sS'/storage/a/wayand/cmss80x/Zll_DYJetsToLL_M-50_amcatnloFXFX-pythia8_25ns_v7_job_88_skim80.root'
p2189
(I671318999
F1461698826
tp2190
sS'/storage/a/wayand/cmss80x/Zll_DYJetsToLL_M-50_amcatnloFXFX-pythia8_25ns_v7_job_569_skim80.root'
p2191
(I668564501
F1461711660
tp2192
sS'/storage/a/wayand/cmss80x/Zll_DYJetsToLL_M-50_amcatnloFXFX-pythia8_25ns_v7_job_270_skim80.root'
p2193
(I578810759
F1461725927
tp2194
sS'/storage/a/wayand/cmss80x/Zll_DYJetsToLL_M-50_amcatnloFXFX-pythia8_25ns_v7_job_1118_skim80.root'
p2195
(I340007167
F1461723898
tp2196
sS'/storage/a/wayand/cmss80x/Zll_DYJetsToLL_M-50_amcatnloFXFX-pythia8_25ns_v7_job_1375_skim80.root'
p2197
(I374492105
F1461728930
tp2198
sS'/storage/a/wayand/cmss80x/Zll_DYJetsToLL_M-50_amcatnloFXFX-pythia8_25ns_v7_job_1501_skim80.root'
p2199
(I440416151
F1461734202
tp2200
sS'/storage/a/wayand/cmss80x/Zll_DYJetsToLL_M-50_amcatnloFXFX-pythia8_25ns_v7_job_209_skim80.root'
p2201
(I404303848
F1461689594
tp2202
sS'/storage/a/wayand/cmss80x/Zll_DYJetsToLL_M-50_amcatnloFXFX-pythia8_25ns_v7_job_479_skim80.root'
p2203
(I657133534
F1461698216
tp2204
sS'/storage/a/wayand/cmss80x/Zll_DYJetsToLL_M-50_amcatnloFXFX-pythia8_25ns_v7_job_103_skim80.root'
p2205
(I661709739
F1461705580
tp2206
sS'/storage/a/wayand/cmss80x/Zll_DYJetsToLL_M-50_amcatnloFXFX-pythia8_25ns_v7_job_296_skim80.root'
p2207
(I449368498
F1461689165
tp2208
sS'/storage/a/wayand/cmss80x/Zll_DYJetsToLL_M-50_amcatnloFXFX-pythia8_25ns_v7_job_661_skim80.root'
p2209
(I663340773
F1461717922
tp2210
sS'/storage/a/wayand/cmss80x/Zll_DYJetsToLL_M-50_amcatnloFXFX-pythia8_25ns_v7_job_839_skim80.root'
p2211
(I445159667
F1461715345
tp2212
sS'/storage/a/wayand/cmss80x/Zll_DYJetsToLL_M-50_amcatnloFXFX-pythia8_25ns_v7_job_1074_skim80.root'
p2213
(I486027320
F1461726907
tp2214
sS'/storage/a/wayand/cmss80x/Zll_DYJetsToLL_M-50_amcatnloFXFX-pythia8_25ns_v7_job_345_skim80.root'
p2215
(I668640886
F1461697680
tp2216
sS'/storage/a/wayand/cmss80x/Zll_DYJetsToLL_M-50_amcatnloFXFX-pythia8_25ns_v7_job_582_skim80.root'
p2217
(I651510050
F1461695745
tp2218
sS'/storage/a/wayand/cmss80x/Zll_DYJetsToLL_M-50_amcatnloFXFX-pythia8_25ns_v7_job_557_skim80.root'
p2219
(I666629497
F1461696818
tp2220
sS'/storage/a/wayand/cmss80x/Zll_DYJetsToLL_M-50_amcatnloFXFX-pythia8_25ns_v7_job_1356_skim80.root'
p2221
(I348679855
F1461728723
tp2222
sS'/storage/a/wayand/cmss80x/Zll_DYJetsToLL_M-50_amcatnloFXFX-pythia8_25ns_v7_job_198_skim80.root'
p2223
(I674247723
F1461707075
tp2224
sS'/storage/a/wayand/cmss80x/Zll_DYJetsToLL_M-50_amcatnloFXFX-pythia8_25ns_v7_job_1292_skim80.root'
p2225
(I661955030
F1461737033
tp2226
sS'/storage/a/wayand/cmss80x/Zll_DYJetsToLL_M-50_amcatnloFXFX-pythia8_25ns_v7_job_39_skim80.root'
p2227
(I648518928
F1461695359
tp2228
sS'/storage/a/wayand/cmss80x/Zll_DYJetsToLL_M-50_amcatnloFXFX-pythia8_25ns_v7_job_413_skim80.root'
p2229
(I425266774
F1461690740
tp2230
sS'/storage/a/wayand/cmss80x/Zll_DYJetsToLL_M-50_amcatnloFXFX-pythia8_25ns_v7_job_1496_skim80.root'
p2231
(I574239699
F1461737498
tp2232
sS'/storage/a/wayand/cmss80x/Zll_DYJetsToLL_M-50_amcatnloFXFX-pythia8_25ns_v7_job_842_skim80.root'
p2233
(I394883055
F1461713010
tp2234
sS'/storage/a/wayand/cmss80x/Zll_DYJetsToLL_M-50_amcatnloFXFX-pythia8_25ns_v7_job_1525_skim80.root'
p2235
(I73176130
F1461723589
tp2236
sS'/storage/a/wayand/cmss80x/Zll_DYJetsToLL_M-50_amcatnloFXFX-pythia8_25ns_v7_job_1383_skim80.root'
p2237
(I180425395
F1461725687
tp2238
sS'/storage/a/wayand/cmss80x/Zll_DYJetsToLL_M-50_amcatnloFXFX-pythia8_25ns_v7_job_724_skim80.root'
p2239
(I435070640
F1461711682
tp2240
sS'/storage/a/wayand/cmss80x/Zll_DYJetsToLL_M-50_amcatnloFXFX-pythia8_25ns_v7_job_278_skim80.root'
p2241
(I669222802
F1461697351
tp2242
sS'/storage/a/wayand/cmss80x/Zll_DYJetsToLL_M-50_amcatnloFXFX-pythia8_25ns_v7_job_768_skim80.root'
p2243
(I322784020
F1461708027
tp2244
sS'/storage/a/wayand/cmss80x/Zll_DYJetsToLL_M-50_amcatnloFXFX-pythia8_25ns_v7_job_96_skim80.root'
p2245
(I658323265
F1461703170
tp2246
sS'/storage/a/wayand/cmss80x/Zll_DYJetsToLL_M-50_amcatnloFXFX-pythia8_25ns_v7_job_213_skim80.root'
p2247
(I667025755
F1461697138
tp2248
sS'/storage/a/wayand/cmss80x/Zll_DYJetsToLL_M-50_amcatnloFXFX-pythia8_25ns_v7_job_616_skim80.root'
p2249
(I665790885
F1461712343
tp2250
sS'/storage/a/wayand/cmss80x/Zll_DYJetsToLL_M-50_amcatnloFXFX-pythia8_25ns_v7_job_1142_skim80.root'
p2251
(I672880186
F1461735025
tp2252
sS'/storage/a/wayand/cmss80x/Zll_DYJetsToLL_M-50_amcatnloFXFX-pythia8_25ns_v7_job_273_skim80.root'
p2253
(I478392515
F1461691796
tp2254
sS'/storage/a/wayand/cmss80x/Zll_DYJetsToLL_M-50_amcatnloFXFX-pythia8_25ns_v7_job_1026_skim80.root'
p2255
(I656401314
F1461732685
tp2256
sS'/storage/a/wayand/cmss80x/Zll_DYJetsToLL_M-50_amcatnloFXFX-pythia8_25ns_v7_job_293_skim80.root'
p2257
(I670501718
F1461696229
tp2258
sS'/storage/a/wayand/cmss80x/Zll_DYJetsToLL_M-50_amcatnloFXFX-pythia8_25ns_v7_job_180_skim80.root'
p2259
(I426701643
F1461689726
tp2260
sS'/storage/a/wayand/cmss80x/Zll_DYJetsToLL_M-50_amcatnloFXFX-pythia8_25ns_v7_job_1060_skim80.root'
p2261
(I27135805
F1461714470
tp2262
sS'/storage/a/wayand/cmss80x/Zll_DYJetsToLL_M-50_amcatnloFXFX-pythia8_25ns_v7_job_536_skim80.root'
p2263
(I667024768
F1461698306
tp2264
sS'/storage/a/wayand/cmss80x/Zll_DYJetsToLL_M-50_amcatnloFXFX-pythia8_25ns_v7_job_1025_skim80.root'
p2265
(I619601186
F1461732978
tp2266
sS'/storage/a/wayand/cmss80x/Zll_DYJetsToLL_M-50_amcatnloFXFX-pythia8_25ns_v7_job_372_skim80.root'
p2267
(I668087797
F1461694786
tp2268
sS'/storage/a/wayand/cmss80x/Zll_DYJetsToLL_M-50_amcatnloFXFX-pythia8_25ns_v7_job_563_skim80.root'
p2269
(I665116343
F1461709498
tp2270
sS'/storage/a/wayand/cmss80x/Zll_DYJetsToLL_M-50_amcatnloFXFX-pythia8_25ns_v7_job_772_skim80.root'
p2271
(I365064815
F1461715753
tp2272
sS'/storage/a/wayand/cmss80x/Zll_DYJetsToLL_M-50_amcatnloFXFX-pythia8_25ns_v7_job_311_skim80.root'
p2273
(I350764829
F1461687289
tp2274
sS'/storage/a/wayand/cmss80x/Zll_DYJetsToLL_M-50_amcatnloFXFX-pythia8_25ns_v7_job_191_skim80.root'
p2275
(I475040220
F1461691551
tp2276
sS'/storage/a/wayand/cmss80x/Zll_DYJetsToLL_M-50_amcatnloFXFX-pythia8_25ns_v7_job_26_skim80.root'
p2277
(I671180258
F1461699244
tp2278
sS'/storage/a/wayand/cmss80x/Zll_DYJetsToLL_M-50_amcatnloFXFX-pythia8_25ns_v7_job_972_skim80.root'
p2279
(I498539945
F1461725132
tp2280
sS'/storage/a/wayand/cmss80x/Zll_DYJetsToLL_M-50_amcatnloFXFX-pythia8_25ns_v7_job_68_skim80.root'
p2281
(I673733051
F1461705679
tp2282
sS'/storage/a/wayand/cmss80x/Zll_DYJetsToLL_M-50_amcatnloFXFX-pythia8_25ns_v7_job_950_skim80.root'
p2283
(I484789961
F1461726294
tp2284
sS'/storage/a/wayand/cmss80x/Zll_DYJetsToLL_M-50_amcatnloFXFX-pythia8_25ns_v7_job_613_skim80.root'
p2285
(I668771828
F1461713298
tp2286
sS'/storage/a/wayand/cmss80x/Zll_DYJetsToLL_M-50_amcatnloFXFX-pythia8_25ns_v7_job_91_skim80.root'
p2287
(I674434939
F1461705757
tp2288
sS'/storage/a/wayand/cmss80x/Zll_DYJetsToLL_M-50_amcatnloFXFX-pythia8_25ns_v7_job_1396_skim80.root'
p2289
(I75071975
F1461721922
tp2290
sS'/storage/a/wayand/cmss80x/Zll_DYJetsToLL_M-50_amcatnloFXFX-pythia8_25ns_v7_job_626_skim80.root'
p2291
(I652266295
F1461713624
tp2292
sS'/storage/a/wayand/cmss80x/Zll_DYJetsToLL_M-50_amcatnloFXFX-pythia8_25ns_v7_job_1283_skim80.root'
p2293
(I470405681
F1461730598
tp2294
sS'/storage/a/wayand/cmss80x/Zll_DYJetsToLL_M-50_amcatnloFXFX-pythia8_25ns_v7_job_942_skim80.root'
p2295
(I673654940
F1461729418
tp2296
sS'/storage/a/wayand/cmss80x/Zll_DYJetsToLL_M-50_amcatnloFXFX-pythia8_25ns_v7_job_382_skim80.root'
p2297
(I663522057
F1461697220
tp2298
sS'/storage/a/wayand/cmss80x/Zll_DYJetsToLL_M-50_amcatnloFXFX-pythia8_25ns_v7_job_332_skim80.root'
p2299
(I659251125
F1461695500
tp2300
sS'/storage/a/wayand/cmss80x/Zll_DYJetsToLL_M-50_amcatnloFXFX-pythia8_25ns_v7_job_217_skim80.root'
p2301
(I449901707
F1461698494
tp2302
sS'/storage/a/wayand/cmss80x/Zll_DYJetsToLL_M-50_amcatnloFXFX-pythia8_25ns_v7_job_236_skim80.root'
p2303
(I472789436
F1461691061
tp2304
sS'/storage/a/wayand/cmss80x/Zll_DYJetsToLL_M-50_amcatnloFXFX-pythia8_25ns_v7_job_1553_skim80.root'
p2305
(I34690602
F1461722979
tp2306
sS'/storage/a/wayand/cmss80x/Zll_DYJetsToLL_M-50_amcatnloFXFX-pythia8_25ns_v7_job_538_skim80.root'
p2307
(I661007878
F1461695864
tp2308
sS'/storage/a/wayand/cmss80x/Zll_DYJetsToLL_M-50_amcatnloFXFX-pythia8_25ns_v7_job_503_skim80.root'
p2309
(I670191446
F1461697932
tp2310
sS'/storage/a/wayand/cmss80x/Zll_DYJetsToLL_M-50_amcatnloFXFX-pythia8_25ns_v7_job_830_skim80.root'
p2311
(I665136887
F1461722669
tp2312
sS'/storage/a/wayand/cmss80x/Zll_DYJetsToLL_M-50_amcatnloFXFX-pythia8_25ns_v7_job_640_skim80.root'
p2313
(I674155640
F1461717255
tp2314
sS'/storage/a/wayand/cmss80x/Zll_DYJetsToLL_M-50_amcatnloFXFX-pythia8_25ns_v7_job_697_skim80.root'
p2315
(I654013027
F1461717200
tp2316
sS'/storage/a/wayand/cmss80x/Zll_DYJetsToLL_M-50_amcatnloFXFX-pythia8_25ns_v7_job_971_skim80.root'
p2317
(I395155543
F1461724292
tp2318
sS'/storage/a/wayand/cmss80x/Zll_DYJetsToLL_M-50_amcatnloFXFX-pythia8_25ns_v7_job_718_skim80.root'
p2319
(I664510146
F1461717387
tp2320
sS'/storage/a/wayand/cmss80x/Zll_DYJetsToLL_M-50_amcatnloFXFX-pythia8_25ns_v7_job_531_skim80.root'
p2321
(I656699472
F1461697700
tp2322
sS'/storage/a/wayand/cmss80x/Zll_DYJetsToLL_M-50_amcatnloFXFX-pythia8_25ns_v7_job_589_skim80.root'
p2323
(I673011808
F1461700195
tp2324
sS'/storage/a/wayand/cmss80x/Zll_DYJetsToLL_M-50_amcatnloFXFX-pythia8_25ns_v7_job_1626_skim80.root'
p2325
(I426268948
F1461734510
tp2326
sS'/storage/a/wayand/cmss80x/Zll_DYJetsToLL_M-50_amcatnloFXFX-pythia8_25ns_v7_job_694_skim80.root'
p2327
(I671704324
F1461715715
tp2328
sS'/storage/a/wayand/cmss80x/Zll_DYJetsToLL_M-50_amcatnloFXFX-pythia8_25ns_v7_job_1409_skim80.root'
p2329
(I528967231
F1461735191
tp2330
sS'/storage/a/wayand/cmss80x/Zll_DYJetsToLL_M-50_amcatnloFXFX-pythia8_25ns_v7_job_1318_skim80.root'
p2331
(I666645202
F1461736496
tp2332
sS'/storage/a/wayand/cmss80x/Zll_DYJetsToLL_M-50_amcatnloFXFX-pythia8_25ns_v7_job_1357_skim80.root'
p2333
(I358911945
F1461727788
tp2334
sS'/storage/a/wayand/cmss80x/Zll_DYJetsToLL_M-50_amcatnloFXFX-pythia8_25ns_v7_job_556_skim80.root'
p2335
(I442699379
F1461691268
tp2336
sS'/storage/a/wayand/cmss80x/Zll_DYJetsToLL_M-50_amcatnloFXFX-pythia8_25ns_v7_job_591_skim80.root'
p2337
(I668230156
F1461698121
tp2338
sS'/storage/a/wayand/cmss80x/Zll_DYJetsToLL_M-50_amcatnloFXFX-pythia8_25ns_v7_job_815_skim80.root'
p2339
(I663096335
F1461720722
tp2340
sS'/storage/a/wayand/cmss80x/Zll_DYJetsToLL_M-50_amcatnloFXFX-pythia8_25ns_v7_job_1385_skim80.root'
p2341
(I197656578
F1461725612
tp2342
sS'/storage/a/wayand/cmss80x/Zll_DYJetsToLL_M-50_amcatnloFXFX-pythia8_25ns_v7_job_77_skim80.root'
p2343
(I670424555
F1461709389
tp2344
sS'/storage/a/wayand/cmss80x/Zll_DYJetsToLL_M-50_amcatnloFXFX-pythia8_25ns_v7_job_819_skim80.root'
p2345
(I623113870
F1461721094
tp2346
sS'/storage/a/wayand/cmss80x/Zll_DYJetsToLL_M-50_amcatnloFXFX-pythia8_25ns_v7_job_1625_skim80.root'
p2347
(I338368682
F1461732545
tp2348
sS'/storage/a/wayand/cmss80x/Zll_DYJetsToLL_M-50_amcatnloFXFX-pythia8_25ns_v7_job_283_skim80.root'
p2349
(I553879065
F1461694771
tp2350
sS'/storage/a/wayand/cmss80x/Zll_DYJetsToLL_M-50_amcatnloFXFX-pythia8_25ns_v7_job_2_skim80.root'
p2351
(I608351461
F1461702866
tp2352
sS'/storage/a/wayand/cmss80x/Zll_DYJetsToLL_M-50_amcatnloFXFX-pythia8_25ns_v7_job_227_skim80.root'
p2353
(I610789853
F1461696777
tp2354
sS'/storage/a/wayand/cmss80x/Zll_DYJetsToLL_M-50_amcatnloFXFX-pythia8_25ns_v7_job_676_skim80.root'
p2355
(I408617044
F1461715948
tp2356
sS'/storage/a/wayand/cmss80x/Zll_DYJetsToLL_M-50_amcatnloFXFX-pythia8_25ns_v7_job_1270_skim80.root'
p2357
(I372328050
F1461725311
tp2358
sS'/storage/a/wayand/cmss80x/Zll_DYJetsToLL_M-50_amcatnloFXFX-pythia8_25ns_v7_job_540_skim80.root'
p2359
(I674527810
F1461697489
tp2360
sS'/storage/a/wayand/cmss80x/Zll_DYJetsToLL_M-50_amcatnloFXFX-pythia8_25ns_v7_job_1043_skim80.root'
p2361
(I523129043
F1461727186
tp2362
sS'/storage/a/wayand/cmss80x/Zll_DYJetsToLL_M-50_amcatnloFXFX-pythia8_25ns_v7_job_680_skim80.root'
p2363
(I465194377
F1461711462
tp2364
sssS'response'
p2365
S'/portal/ekpcms6/home/dhaitz/new_artus/Excalibur/data/pileup/pileup_json_Cert_246908-260627_13TeV_PromptReco_Collisions15_25ns_JSON_v2_to_cmss80x_ST_xsec_69.0_weights_0-4.root'
p2366
s.